
hello.exe:     file format elf32-littlearm


Disassembly of section .init:

00010114 <_init>:
   10114:	e92d4008 	push	{r3, lr}
   10118:	eb0001dc 	bl	10890 <call_weak_fn>
   1011c:	e8bd8008 	pop	{r3, pc}

Disassembly of section .text:

00010120 <backtrace_and_maps>:
   10120:	e3500001 	cmp	r0, #1
   10124:	d3a01000 	movle	r1, #0
   10128:	c2011001 	andgt	r1, r1, #1
   1012c:	e3510000 	cmp	r1, #0
   10130:	012fff1e 	bxeq	lr
   10134:	e92d41f0 	push	{r4, r5, r6, r7, r8, lr}
   10138:	e24ddc05 	sub	sp, sp, #1280	; 0x500
   1013c:	e1a0000d 	mov	r0, sp
   10140:	e3a01040 	mov	r1, #64	; 0x40
   10144:	e1a04002 	mov	r4, r2
   10148:	eb006553 	bl	2969c <__backtrace>
   1014c:	e3500002 	cmp	r0, #2
   10150:	e1a03000 	mov	r3, r0
   10154:	da00004b 	ble	10288 <backtrace_and_maps+0x168>
   10158:	e1a00004 	mov	r0, r4
   1015c:	e59f112c 	ldr	r1, [pc, #300]	; 10290 <backtrace_and_maps+0x170>
   10160:	e3a0201d 	mov	r2, #29
   10164:	e3a07004 	mov	r7, #4
   10168:	ef000000 	svc	0x00000000
   1016c:	e3700a01 	cmn	r0, #4096	; 0x1000
   10170:	9a000004 	bls	10188 <backtrace_and_maps+0x68>
   10174:	e59f1118 	ldr	r1, [pc, #280]	; 10294 <backtrace_and_maps+0x174>
   10178:	e2602000 	rsb	r2, r0, #0
   1017c:	eb000423 	bl	11210 <__aeabi_read_tp>
   10180:	e79f1001 	ldr	r1, [pc, r1]
   10184:	e7802001 	str	r2, [r0, r1]
   10188:	e28d0004 	add	r0, sp, #4
   1018c:	e2431001 	sub	r1, r3, #1
   10190:	e1a02004 	mov	r2, r4
   10194:	eb00655c 	bl	2970c <__backtrace_symbols_fd>
   10198:	e3a07004 	mov	r7, #4
   1019c:	e1a00004 	mov	r0, r4
   101a0:	e59f10f0 	ldr	r1, [pc, #240]	; 10298 <backtrace_and_maps+0x178>
   101a4:	e3a0201d 	mov	r2, #29
   101a8:	ef000000 	svc	0x00000000
   101ac:	e3700a01 	cmn	r0, #4096	; 0x1000
   101b0:	9a000004 	bls	101c8 <backtrace_and_maps+0xa8>
   101b4:	e59f20e0 	ldr	r2, [pc, #224]	; 1029c <backtrace_and_maps+0x17c>
   101b8:	e2603000 	rsb	r3, r0, #0
   101bc:	eb000413 	bl	11210 <__aeabi_read_tp>
   101c0:	e79f2002 	ldr	r2, [pc, r2]
   101c4:	e7803002 	str	r3, [r0, r2]
   101c8:	e59f00d0 	ldr	r0, [pc, #208]	; 102a0 <backtrace_and_maps+0x180>
   101cc:	e3a01000 	mov	r1, #0
   101d0:	e3a07005 	mov	r7, #5
   101d4:	ef000000 	svc	0x00000000
   101d8:	e3700a01 	cmn	r0, #4096	; 0x1000
   101dc:	e1a05000 	mov	r5, r0
   101e0:	9a000005 	bls	101fc <backtrace_and_maps+0xdc>
   101e4:	e59f30b8 	ldr	r3, [pc, #184]	; 102a4 <backtrace_and_maps+0x184>
   101e8:	e3e05000 	mvn	r5, #0
   101ec:	e2602000 	rsb	r2, r0, #0
   101f0:	e79f3003 	ldr	r3, [pc, r3]
   101f4:	eb000405 	bl	11210 <__aeabi_read_tp>
   101f8:	e7802003 	str	r2, [r0, r3]
   101fc:	e59f80a4 	ldr	r8, [pc, #164]	; 102a8 <backtrace_and_maps+0x188>
   10200:	e1a00005 	mov	r0, r5
   10204:	e28d1c01 	add	r1, sp, #256	; 0x100
   10208:	e3a02b01 	mov	r2, #1024	; 0x400
   1020c:	e3a07003 	mov	r7, #3
   10210:	ef000000 	svc	0x00000000
   10214:	e1a03000 	mov	r3, r0
   10218:	e3730a01 	cmn	r3, #4096	; 0x1000
   1021c:	e1a02000 	mov	r2, r0
   10220:	e3a07004 	mov	r7, #4
   10224:	e1a00004 	mov	r0, r4
   10228:	9a000008 	bls	10250 <backtrace_and_maps+0x130>
   1022c:	e59f2078 	ldr	r2, [pc, #120]	; 102ac <backtrace_and_maps+0x18c>
   10230:	e2633000 	rsb	r3, r3, #0
   10234:	eb0003f5 	bl	11210 <__aeabi_read_tp>
   10238:	e79f2002 	ldr	r2, [pc, r2]
   1023c:	e7803002 	str	r3, [r0, r2]
   10240:	e1a00005 	mov	r0, r5
   10244:	e3a07006 	mov	r7, #6
   10248:	ef000000 	svc	0x00000000
   1024c:	ea00000d 	b	10288 <backtrace_and_maps+0x168>
   10250:	e3530000 	cmp	r3, #0
   10254:	dafffff9 	ble	10240 <backtrace_and_maps+0x120>
   10258:	ef000000 	svc	0x00000000
   1025c:	e3700a01 	cmn	r0, #4096	; 0x1000
   10260:	e1a01000 	mov	r1, r0
   10264:	9a000004 	bls	1027c <backtrace_and_maps+0x15c>
   10268:	e79f2008 	ldr	r2, [pc, r8]
   1026c:	e3e01000 	mvn	r1, #0
   10270:	e2606000 	rsb	r6, r0, #0
   10274:	eb0003e5 	bl	11210 <__aeabi_read_tp>
   10278:	e7806002 	str	r6, [r0, r2]
   1027c:	e1530001 	cmp	r3, r1
   10280:	0affffde 	beq	10200 <backtrace_and_maps+0xe0>
   10284:	eaffffed 	b	10240 <backtrace_and_maps+0x120>
   10288:	e28ddc05 	add	sp, sp, #1280	; 0x500
   1028c:	e8bd81f0 	pop	{r4, r5, r6, r7, r8, pc}
   10290:	00071f20 	.word	0x00071f20
   10294:	000883cc 	.word	0x000883cc
   10298:	00071f40 	.word	0x00071f40
   1029c:	0008838c 	.word	0x0008838c
   102a0:	00071f60 	.word	0x00071f60
   102a4:	0008835c 	.word	0x0008835c
   102a8:	000882e4 	.word	0x000882e4
   102ac:	00088314 	.word	0x00088314

000102b0 <read_int>:
   102b0:	e5903000 	ldr	r3, [r0]
   102b4:	e92d4010 	push	{r4, lr}
   102b8:	e3a0e00a 	mov	lr, #10
   102bc:	e5d32000 	ldrb	r2, [r3]
   102c0:	e59f4050 	ldr	r4, [pc, #80]	; 10318 <read_int+0x68>
   102c4:	e2422030 	sub	r2, r2, #48	; 0x30
   102c8:	e5903000 	ldr	r3, [r0]
   102cc:	e2831001 	add	r1, r3, #1
   102d0:	e5801000 	str	r1, [r0]
   102d4:	e5d33001 	ldrb	r3, [r3, #1]
   102d8:	e2433030 	sub	r3, r3, #48	; 0x30
   102dc:	e3530009 	cmp	r3, #9
   102e0:	8a00000a 	bhi	10310 <read_int+0x60>
   102e4:	e3520000 	cmp	r2, #0
   102e8:	bafffff6 	blt	102c8 <read_int+0x18>
   102ec:	e3e01102 	mvn	r1, #-2147483648	; 0x80000000
   102f0:	e1520004 	cmp	r2, r4
   102f4:	e00c029e 	mul	ip, lr, r2
   102f8:	e0631001 	rsb	r1, r3, r1
   102fc:	e3e02000 	mvn	r2, #0
   10300:	cafffff0 	bgt	102c8 <read_int+0x18>
   10304:	e151000c 	cmp	r1, ip
   10308:	a083200c 	addge	r2, r3, ip
   1030c:	eaffffed 	b	102c8 <read_int+0x18>
   10310:	e1a00002 	mov	r0, r2
   10314:	e8bd8010 	pop	{r4, pc}
   10318:	0ccccccc 	.word	0x0ccccccc

0001031c <group_number>:
   1031c:	e92d4ff8 	push	{r3, r4, r5, r6, r7, r8, r9, sl, fp, lr}
   10320:	e1a07002 	mov	r7, r2
   10324:	e1a09000 	mov	r9, r0
   10328:	e28db024 	add	fp, sp, #36	; 0x24
   1032c:	e1a00003 	mov	r0, r3
   10330:	e1a05003 	mov	r5, r3
   10334:	e1a04001 	mov	r4, r1
   10338:	eb0051b8 	bl	24a20 <strlen>
   1033c:	e5d78000 	ldrb	r8, [r7]
   10340:	e2483001 	sub	r3, r8, #1
   10344:	e6ef3073 	uxtb	r3, r3
   10348:	e35300fd 	cmp	r3, #253	; 0xfd
   1034c:	81a00009 	movhi	r0, r9
   10350:	8a00002d 	bhi	1040c <group_number+0xf0>
   10354:	e0692004 	rsb	r2, r9, r4
   10358:	e282300e 	add	r3, r2, #14
   1035c:	e3c33007 	bic	r3, r3, #7
   10360:	e04dd003 	sub	sp, sp, r3
   10364:	e1a0a000 	mov	sl, r0
   10368:	e1a01009 	mov	r1, r9
   1036c:	e1a0000d 	mov	r0, sp
   10370:	eb0056a6 	bl	25e10 <__mempcpy>
   10374:	e1a0600d 	mov	r6, sp
   10378:	e2877001 	add	r7, r7, #1
   1037c:	e1a02004 	mov	r2, r4
   10380:	e1a09000 	mov	r9, r0
   10384:	e085000a 	add	r0, r5, sl
   10388:	e1590006 	cmp	r9, r6
   1038c:	9a00001d 	bls	10408 <group_number+0xec>
   10390:	e5791001 	ldrb	r1, [r9, #-1]!
   10394:	e2588001 	subs	r8, r8, #1
   10398:	e2423001 	sub	r3, r2, #1
   1039c:	e5421001 	strb	r1, [r2, #-1]
   103a0:	1a000016 	bne	10400 <group_number+0xe4>
   103a4:	e1590006 	cmp	r9, r6
   103a8:	9a000014 	bls	10400 <group_number+0xe4>
   103ac:	e2422002 	sub	r2, r2, #2
   103b0:	e1a01000 	mov	r1, r0
   103b4:	e571c001 	ldrb	ip, [r1, #-1]!
   103b8:	e1a03002 	mov	r3, r2
   103bc:	e065e001 	rsb	lr, r5, r1
   103c0:	e35e0000 	cmp	lr, #0
   103c4:	e442c001 	strb	ip, [r2], #-1
   103c8:	cafffff9 	bgt	103b4 <group_number+0x98>
   103cc:	e5d78000 	ldrb	r8, [r7]
   103d0:	e35800ff 	cmp	r8, #255	; 0xff
   103d4:	1a000006 	bne	103f4 <group_number+0xd8>
   103d8:	e1a03002 	mov	r3, r2
   103dc:	e5791001 	ldrb	r1, [r9, #-1]!
   103e0:	e1a02003 	mov	r2, r3
   103e4:	e1590006 	cmp	r9, r6
   103e8:	e4431001 	strb	r1, [r3], #-1
   103ec:	8afffffa 	bhi	103dc <group_number+0xc0>
   103f0:	ea000004 	b	10408 <group_number+0xec>
   103f4:	e3580000 	cmp	r8, #0
   103f8:	12877001 	addne	r7, r7, #1
   103fc:	05578001 	ldrbeq	r8, [r7, #-1]
   10400:	e1a02003 	mov	r2, r3
   10404:	eaffffdf 	b	10388 <group_number+0x6c>
   10408:	e1a00002 	mov	r0, r2
   1040c:	e24bd024 	sub	sp, fp, #36	; 0x24
   10410:	e8bd8ff8 	pop	{r3, r4, r5, r6, r7, r8, r9, sl, fp, pc}

00010414 <_i18n_number_rewrite>:
   10414:	e92d4ff0 	push	{r4, r5, r6, r7, r8, r9, sl, fp, lr}
   10418:	e1a05000 	mov	r5, r0
   1041c:	e28db020 	add	fp, sp, #32
   10420:	e59f01b8 	ldr	r0, [pc, #440]	; 105e0 <_i18n_number_rewrite+0x1cc>
   10424:	e24dd034 	sub	sp, sp, #52	; 0x34
   10428:	e1a04002 	mov	r4, r2
   1042c:	e1a09001 	mov	r9, r1
   10430:	eb00fb37 	bl	4f114 <__wctrans>
   10434:	e1a07000 	mov	r7, r0
   10438:	e1a01000 	mov	r1, r0
   1043c:	e3a0002e 	mov	r0, #46	; 0x2e
   10440:	eb00fb55 	bl	4f19c <__towctrans>
   10444:	e1a01007 	mov	r1, r7
   10448:	e1a08000 	mov	r8, r0
   1044c:	e3a0002c 	mov	r0, #44	; 0x2c
   10450:	eb00fb51 	bl	4f19c <__towctrans>
   10454:	e3570000 	cmp	r7, #0
   10458:	0a00001a 	beq	104c8 <_i18n_number_rewrite+0xb4>
   1045c:	e1a01008 	mov	r1, r8
   10460:	e1a06000 	mov	r6, r0
   10464:	e3a08000 	mov	r8, #0
   10468:	e24b2054 	sub	r2, fp, #84	; 0x54
   1046c:	e24b004c 	sub	r0, fp, #76	; 0x4c
   10470:	e50b8054 	str	r8, [fp, #-84]	; 0xffffffac
   10474:	e50b8050 	str	r8, [fp, #-80]	; 0xffffffb0
   10478:	eb00e9f4 	bl	4ac50 <__wcrtomb>
   1047c:	e24b2054 	sub	r2, fp, #84	; 0x54
   10480:	e1a01006 	mov	r1, r6
   10484:	e50b8054 	str	r8, [fp, #-84]	; 0xffffffac
   10488:	e50b8050 	str	r8, [fp, #-80]	; 0xffffffb0
   1048c:	e3700001 	cmn	r0, #1
   10490:	124b3024 	subne	r3, fp, #36	; 0x24
   10494:	10830000 	addne	r0, r3, r0
   10498:	03a0302e 	moveq	r3, #46	; 0x2e
   1049c:	15408028 	strbne	r8, [r0, #-40]	; 0xffffffd8
   104a0:	e24b0038 	sub	r0, fp, #56	; 0x38
   104a4:	014b34bc 	strheq	r3, [fp, #-76]	; 0xffffffb4
   104a8:	eb00e9e8 	bl	4ac50 <__wcrtomb>
   104ac:	e3a03000 	mov	r3, #0
   104b0:	e3700001 	cmn	r0, #1
   104b4:	124b2024 	subne	r2, fp, #36	; 0x24
   104b8:	10820000 	addne	r0, r2, r0
   104bc:	03a0302c 	moveq	r3, #44	; 0x2c
   104c0:	014b33b8 	strheq	r3, [fp, #-56]	; 0xffffffc8
   104c4:	15403014 	strbne	r3, [r0, #-20]	; 0xffffffec
   104c8:	e0659009 	rsb	r9, r5, r9
   104cc:	e3590a01 	cmp	r9, #4096	; 0x1000
   104d0:	9a000003 	bls	104e4 <_i18n_number_rewrite+0xd0>
   104d4:	e1a00009 	mov	r0, r9
   104d8:	eb00635c 	bl	29250 <__libc_alloca_cutoff>
   104dc:	e2508000 	subs	r8, r0, #0
   104e0:	0a000005 	beq	104fc <_i18n_number_rewrite+0xe8>
   104e4:	e289300e 	add	r3, r9, #14
   104e8:	e3c33007 	bic	r3, r3, #7
   104ec:	e04dd003 	sub	sp, sp, r3
   104f0:	e1a0600d 	mov	r6, sp
   104f4:	e3a08001 	mov	r8, #1
   104f8:	ea000004 	b	10510 <_i18n_number_rewrite+0xfc>
   104fc:	e1a00009 	mov	r0, r9
   10500:	eb0047d9 	bl	2246c <__libc_malloc>
   10504:	e2506000 	subs	r6, r0, #0
   10508:	01a00005 	moveq	r0, r5
   1050c:	0a000031 	beq	105d8 <_i18n_number_rewrite+0x1c4>
   10510:	e1a01005 	mov	r1, r5
   10514:	e1a02009 	mov	r2, r9
   10518:	e1a00006 	mov	r0, r6
   1051c:	eb00563b 	bl	25e10 <__mempcpy>
   10520:	e59f50bc 	ldr	r5, [pc, #188]	; 105e4 <_i18n_number_rewrite+0x1d0>
   10524:	e240a001 	sub	sl, r0, #1
   10528:	e15a0006 	cmp	sl, r6
   1052c:	3a000024 	bcc	105c4 <_i18n_number_rewrite+0x1b0>
   10530:	e45a3001 	ldrb	r3, [sl], #-1
   10534:	e2432030 	sub	r2, r3, #48	; 0x30
   10538:	e3520009 	cmp	r2, #9
   1053c:	8a00000d 	bhi	10578 <_i18n_number_rewrite+0x164>
   10540:	e79f2005 	ldr	r2, [pc, r5]
   10544:	eb000331 	bl	11210 <__aeabi_read_tp>
   10548:	e7902002 	ldr	r2, [r0, r2]
   1054c:	e5922000 	ldr	r2, [r2]
   10550:	e0823103 	add	r3, r2, r3, lsl #2
   10554:	e5939008 	ldr	r9, [r3, #8]
   10558:	e1a00009 	mov	r0, r9
   1055c:	eb00512f 	bl	24a20 <strlen>
   10560:	e0604004 	rsb	r4, r0, r4
   10564:	e2500001 	subs	r0, r0, #1
   10568:	3affffee 	bcc	10528 <_i18n_number_rewrite+0x114>
   1056c:	e7d92000 	ldrb	r2, [r9, r0]
   10570:	e7c42000 	strb	r2, [r4, r0]
   10574:	eafffffa 	b	10564 <_i18n_number_rewrite+0x150>
   10578:	e3570000 	cmp	r7, #0
   1057c:	0a000002 	beq	1058c <_i18n_number_rewrite+0x178>
   10580:	e20320fd 	and	r2, r3, #253	; 0xfd
   10584:	e352002c 	cmp	r2, #44	; 0x2c
   10588:	0a000002 	beq	10598 <_i18n_number_rewrite+0x184>
   1058c:	e5443001 	strb	r3, [r4, #-1]
   10590:	e2444001 	sub	r4, r4, #1
   10594:	eaffffe3 	b	10528 <_i18n_number_rewrite+0x114>
   10598:	e353002e 	cmp	r3, #46	; 0x2e
   1059c:	124b9038 	subne	r9, fp, #56	; 0x38
   105a0:	024b904c 	subeq	r9, fp, #76	; 0x4c
   105a4:	e1a00009 	mov	r0, r9
   105a8:	eb00511c 	bl	24a20 <strlen>
   105ac:	e0604004 	rsb	r4, r0, r4
   105b0:	e2500001 	subs	r0, r0, #1
   105b4:	3affffdb 	bcc	10528 <_i18n_number_rewrite+0x114>
   105b8:	e7d93000 	ldrb	r3, [r9, r0]
   105bc:	e7c43000 	strb	r3, [r4, r0]
   105c0:	eafffffa 	b	105b0 <_i18n_number_rewrite+0x19c>
   105c4:	e3580000 	cmp	r8, #0
   105c8:	1a000001 	bne	105d4 <_i18n_number_rewrite+0x1c0>
   105cc:	e1a00006 	mov	r0, r6
   105d0:	eb00497a 	bl	22bc0 <__cfree>
   105d4:	e1a00004 	mov	r0, r4
   105d8:	e24bd020 	sub	sp, fp, #32
   105dc:	e8bd8ff0 	pop	{r4, r5, r6, r7, r8, r9, sl, fp, pc}
   105e0:	00081c0c 	.word	0x00081c0c
   105e4:	00088008 	.word	0x00088008

000105e8 <read_int>:
   105e8:	e590c000 	ldr	ip, [r0]
   105ec:	e92d4030 	push	{r4, r5, lr}
   105f0:	e3a0400a 	mov	r4, #10
   105f4:	e59c2000 	ldr	r2, [ip]
   105f8:	e59f5048 	ldr	r5, [pc, #72]	; 10648 <read_int+0x60>
   105fc:	e2422030 	sub	r2, r2, #48	; 0x30
   10600:	e5bc3004 	ldr	r3, [ip, #4]!
   10604:	e2433030 	sub	r3, r3, #48	; 0x30
   10608:	e3530009 	cmp	r3, #9
   1060c:	8a00000a 	bhi	1063c <read_int+0x54>
   10610:	e3520000 	cmp	r2, #0
   10614:	bafffff9 	blt	10600 <read_int+0x18>
   10618:	e3e01102 	mvn	r1, #-2147483648	; 0x80000000
   1061c:	e1520005 	cmp	r2, r5
   10620:	e00e0294 	mul	lr, r4, r2
   10624:	e0631001 	rsb	r1, r3, r1
   10628:	e3e02000 	mvn	r2, #0
   1062c:	cafffff3 	bgt	10600 <read_int+0x18>
   10630:	e151000e 	cmp	r1, lr
   10634:	a08e2003 	addge	r2, lr, r3
   10638:	eafffff0 	b	10600 <read_int+0x18>
   1063c:	e580c000 	str	ip, [r0]
   10640:	e1a00002 	mov	r0, r2
   10644:	e8bd8030 	pop	{r4, r5, pc}
   10648:	0ccccccc 	.word	0x0ccccccc

0001064c <group_number>:
   1064c:	e92d49f8 	push	{r3, r4, r5, r6, r7, r8, fp, lr}
   10650:	e28db01c 	add	fp, sp, #28
   10654:	e5d24000 	ldrb	r4, [r2]
   10658:	e244c001 	sub	ip, r4, #1
   1065c:	e6efc07c 	uxtb	ip, ip
   10660:	e35c00fd 	cmp	ip, #253	; 0xfd
   10664:	8a000027 	bhi	10708 <group_number+0xbc>
   10668:	e1a05001 	mov	r5, r1
   1066c:	e1a07002 	mov	r7, r2
   10670:	e0602005 	rsb	r2, r0, r5
   10674:	e1a08003 	mov	r8, r3
   10678:	e282300e 	add	r3, r2, #14
   1067c:	e3c33007 	bic	r3, r3, #7
   10680:	e04dd003 	sub	sp, sp, r3
   10684:	e1a01000 	mov	r1, r0
   10688:	e1a0000d 	mov	r0, sp
   1068c:	eb0055df 	bl	25e10 <__mempcpy>
   10690:	e1a0600d 	mov	r6, sp
   10694:	e2877001 	add	r7, r7, #1
   10698:	e1a01005 	mov	r1, r5
   1069c:	e1500006 	cmp	r0, r6
   106a0:	9a000017 	bls	10704 <group_number+0xb8>
   106a4:	e5303004 	ldr	r3, [r0, #-4]!
   106a8:	e2544001 	subs	r4, r4, #1
   106ac:	e5013004 	str	r3, [r1, #-4]
   106b0:	e2413004 	sub	r3, r1, #4
   106b4:	1a000010 	bne	106fc <group_number+0xb0>
   106b8:	e1500006 	cmp	r0, r6
   106bc:	9a00000e 	bls	106fc <group_number+0xb0>
   106c0:	e5018008 	str	r8, [r1, #-8]
   106c4:	e5d74000 	ldrb	r4, [r7]
   106c8:	e2413008 	sub	r3, r1, #8
   106cc:	e35400ff 	cmp	r4, #255	; 0xff
   106d0:	1a000006 	bne	106f0 <group_number+0xa4>
   106d4:	e241300c 	sub	r3, r1, #12
   106d8:	e5302004 	ldr	r2, [r0, #-4]!
   106dc:	e1a01003 	mov	r1, r3
   106e0:	e1500006 	cmp	r0, r6
   106e4:	e4032004 	str	r2, [r3], #-4
   106e8:	8afffffa 	bhi	106d8 <group_number+0x8c>
   106ec:	ea000004 	b	10704 <group_number+0xb8>
   106f0:	e3540000 	cmp	r4, #0
   106f4:	12877001 	addne	r7, r7, #1
   106f8:	05574001 	ldrbeq	r4, [r7, #-1]
   106fc:	e1a01003 	mov	r1, r3
   10700:	eaffffe5 	b	1069c <group_number+0x50>
   10704:	e1a00001 	mov	r0, r1
   10708:	e24bd01c 	sub	sp, fp, #28
   1070c:	e8bd89f8 	pop	{r3, r4, r5, r6, r7, r8, fp, pc}

00010710 <_i18n_number_rewrite>:
   10710:	e92d4ff0 	push	{r4, r5, r6, r7, r8, r9, sl, fp, lr}
   10714:	e1a09000 	mov	r9, r0
   10718:	e28db020 	add	fp, sp, #32
   1071c:	e59f0118 	ldr	r0, [pc, #280]	; 1083c <_i18n_number_rewrite+0x12c>
   10720:	e24dd00c 	sub	sp, sp, #12
   10724:	e1a04001 	mov	r4, r1
   10728:	e1a0a002 	mov	sl, r2
   1072c:	eb00fa78 	bl	4f114 <__wctrans>
   10730:	e0696004 	rsb	r6, r9, r4
   10734:	e1a01000 	mov	r1, r0
   10738:	e1a08000 	mov	r8, r0
   1073c:	e3a0002e 	mov	r0, #46	; 0x2e
   10740:	eb00fa95 	bl	4f19c <__towctrans>
   10744:	e1a01008 	mov	r1, r8
   10748:	e50b0028 	str	r0, [fp, #-40]	; 0xffffffd8
   1074c:	e3a0002c 	mov	r0, #44	; 0x2c
   10750:	eb00fa91 	bl	4f19c <__towctrans>
   10754:	e3560a01 	cmp	r6, #4096	; 0x1000
   10758:	e1a07000 	mov	r7, r0
   1075c:	9a000003 	bls	10770 <_i18n_number_rewrite+0x60>
   10760:	e1a00006 	mov	r0, r6
   10764:	eb0062b9 	bl	29250 <__libc_alloca_cutoff>
   10768:	e2505000 	subs	r5, r0, #0
   1076c:	0a000005 	beq	10788 <_i18n_number_rewrite+0x78>
   10770:	e286300e 	add	r3, r6, #14
   10774:	e3c33007 	bic	r3, r3, #7
   10778:	e04dd003 	sub	sp, sp, r3
   1077c:	e1a0400d 	mov	r4, sp
   10780:	e3a05001 	mov	r5, #1
   10784:	ea000003 	b	10798 <_i18n_number_rewrite+0x88>
   10788:	e1a00006 	mov	r0, r6
   1078c:	eb004736 	bl	2246c <__libc_malloc>
   10790:	e2504000 	subs	r4, r0, #0
   10794:	0a000025 	beq	10830 <_i18n_number_rewrite+0x120>
   10798:	e1a01009 	mov	r1, r9
   1079c:	e1a02006 	mov	r2, r6
   107a0:	e1a00004 	mov	r0, r4
   107a4:	eb005599 	bl	25e10 <__mempcpy>
   107a8:	e59f1090 	ldr	r1, [pc, #144]	; 10840 <_i18n_number_rewrite+0x130>
   107ac:	e24a2004 	sub	r2, sl, #4
   107b0:	e79f1001 	ldr	r1, [pc, r1]
   107b4:	e2403004 	sub	r3, r0, #4
   107b8:	eb000294 	bl	11210 <__aeabi_read_tp>
   107bc:	e7900001 	ldr	r0, [r0, r1]
   107c0:	e1530004 	cmp	r3, r4
   107c4:	e2829004 	add	r9, r2, #4
   107c8:	3a000014 	bcc	10820 <_i18n_number_rewrite+0x110>
   107cc:	e413c004 	ldr	ip, [r3], #-4
   107d0:	e24c1030 	sub	r1, ip, #48	; 0x30
   107d4:	e3510009 	cmp	r1, #9
   107d8:	8a000004 	bhi	107f0 <_i18n_number_rewrite+0xe0>
   107dc:	e5901000 	ldr	r1, [r0]
   107e0:	e081c10c 	add	ip, r1, ip, lsl #2
   107e4:	e59c1030 	ldr	r1, [ip, #48]	; 0x30
   107e8:	e5821000 	str	r1, [r2]
   107ec:	ea000009 	b	10818 <_i18n_number_rewrite+0x108>
   107f0:	e3580000 	cmp	r8, #0
   107f4:	0a000006 	beq	10814 <_i18n_number_rewrite+0x104>
   107f8:	e3cc1002 	bic	r1, ip, #2
   107fc:	e351002c 	cmp	r1, #44	; 0x2c
   10800:	1a000003 	bne	10814 <_i18n_number_rewrite+0x104>
   10804:	e51b1028 	ldr	r1, [fp, #-40]	; 0xffffffd8
   10808:	e35c002e 	cmp	ip, #46	; 0x2e
   1080c:	11a01007 	movne	r1, r7
   10810:	e1a0c001 	mov	ip, r1
   10814:	e582c000 	str	ip, [r2]
   10818:	e2422004 	sub	r2, r2, #4
   1081c:	eaffffe7 	b	107c0 <_i18n_number_rewrite+0xb0>
   10820:	e3550000 	cmp	r5, #0
   10824:	1a000001 	bne	10830 <_i18n_number_rewrite+0x120>
   10828:	e1a00004 	mov	r0, r4
   1082c:	eb0048e3 	bl	22bc0 <__cfree>
   10830:	e1a00009 	mov	r0, r9
   10834:	e24bd020 	sub	sp, fp, #32
   10838:	e8bd8ff0 	pop	{r4, r5, r6, r7, r8, r9, sl, fp, pc}
   1083c:	00081c0c 	.word	0x00081c0c
   10840:	00087d98 	.word	0x00087d98

00010844 <fini>:
   10844:	e59f3004 	ldr	r3, [pc, #4]	; 10850 <fini+0xc>
   10848:	e5930014 	ldr	r0, [r3, #20]
   1084c:	ea014bf2 	b	6381c <check_free.isra.0>
   10850:	0009a0bc 	.word	0x0009a0bc

00010854 <_start>:
   10854:	e3a0b000 	mov	fp, #0
   10858:	e3a0e000 	mov	lr, #0
   1085c:	e49d1004 	pop	{r1}		; (ldr r1, [sp], #4)
   10860:	e1a0200d 	mov	r2, sp
   10864:	e52d2004 	push	{r2}		; (str r2, [sp, #-4]!)
   10868:	e52d0004 	push	{r0}		; (str r0, [sp, #-4]!)
   1086c:	e59fc010 	ldr	ip, [pc, #16]	; 10884 <_start+0x30>
   10870:	e52dc004 	push	{ip}		; (str ip, [sp, #-4]!)
   10874:	e59f000c 	ldr	r0, [pc, #12]	; 10888 <_start+0x34>
   10878:	e59f300c 	ldr	r3, [pc, #12]	; 1088c <_start+0x38>
   1087c:	eb000056 	bl	109dc <__libc_start_main>
   10880:	eb00148e 	bl	15ac0 <abort>
   10884:	000111d0 	.word	0x000111d0
   10888:	000109bc 	.word	0x000109bc
   1088c:	00011134 	.word	0x00011134

00010890 <call_weak_fn>:
   10890:	e59f3014 	ldr	r3, [pc, #20]	; 108ac <call_weak_fn+0x1c>
   10894:	e59f2014 	ldr	r2, [pc, #20]	; 108b0 <call_weak_fn+0x20>
   10898:	e08f3003 	add	r3, pc, r3
   1089c:	e7932002 	ldr	r2, [r3, r2]
   108a0:	e3520000 	cmp	r2, #0
   108a4:	012fff1e 	bxeq	lr
   108a8:	e1a00000 	nop			; (mov r0, r0)
   108ac:	00087c74 	.word	0x00087c74
   108b0:	0000006c 	.word	0x0000006c

000108b4 <deregister_tm_clones>:
   108b4:	e59f001c 	ldr	r0, [pc, #28]	; 108d8 <deregister_tm_clones+0x24>
   108b8:	e59f301c 	ldr	r3, [pc, #28]	; 108dc <deregister_tm_clones+0x28>
   108bc:	e0603003 	rsb	r3, r0, r3
   108c0:	e3530006 	cmp	r3, #6
   108c4:	912fff1e 	bxls	lr
   108c8:	e59f3010 	ldr	r3, [pc, #16]	; 108e0 <deregister_tm_clones+0x2c>
   108cc:	e3530000 	cmp	r3, #0
   108d0:	012fff1e 	bxeq	lr
   108d4:	e12fff13 	bx	r3
   108d8:	000993f0 	.word	0x000993f0
   108dc:	000993f3 	.word	0x000993f3
   108e0:	00000000 	.word	0x00000000

000108e4 <register_tm_clones>:
   108e4:	e59f0024 	ldr	r0, [pc, #36]	; 10910 <register_tm_clones+0x2c>
   108e8:	e59f1024 	ldr	r1, [pc, #36]	; 10914 <register_tm_clones+0x30>
   108ec:	e0601001 	rsb	r1, r0, r1
   108f0:	e1a01141 	asr	r1, r1, #2
   108f4:	e0811fa1 	add	r1, r1, r1, lsr #31
   108f8:	e1b010c1 	asrs	r1, r1, #1
   108fc:	012fff1e 	bxeq	lr
   10900:	e59f3010 	ldr	r3, [pc, #16]	; 10918 <register_tm_clones+0x34>
   10904:	e3530000 	cmp	r3, #0
   10908:	012fff1e 	bxeq	lr
   1090c:	e12fff13 	bx	r3
   10910:	000993f0 	.word	0x000993f0
   10914:	000993f0 	.word	0x000993f0
   10918:	00000000 	.word	0x00000000

0001091c <__do_global_dtors_aux>:
   1091c:	e59f3034 	ldr	r3, [pc, #52]	; 10958 <__do_global_dtors_aux+0x3c>
   10920:	e5d32000 	ldrb	r2, [r3]
   10924:	e3520000 	cmp	r2, #0
   10928:	112fff1e 	bxne	lr
   1092c:	e92d4010 	push	{r4, lr}
   10930:	e1a04003 	mov	r4, r3
   10934:	ebffffde 	bl	108b4 <deregister_tm_clones>
   10938:	e59f301c 	ldr	r3, [pc, #28]	; 1095c <__do_global_dtors_aux+0x40>
   1093c:	e3530000 	cmp	r3, #0
   10940:	0a000001 	beq	1094c <__do_global_dtors_aux+0x30>
   10944:	e59f0014 	ldr	r0, [pc, #20]	; 10960 <__do_global_dtors_aux+0x44>
   10948:	e1a00000 	nop			; (mov r0, r0)
   1094c:	e3a03001 	mov	r3, #1
   10950:	e5c43000 	strb	r3, [r4]
   10954:	e8bd8010 	pop	{r4, pc}
   10958:	000993f0 	.word	0x000993f0
   1095c:	00000000 	.word	0x00000000
   10960:	0008847c 	.word	0x0008847c

00010964 <frame_dummy>:
   10964:	e92d4008 	push	{r3, lr}
   10968:	e59f3038 	ldr	r3, [pc, #56]	; 109a8 <frame_dummy+0x44>
   1096c:	e3530000 	cmp	r3, #0
   10970:	0a000002 	beq	10980 <frame_dummy+0x1c>
   10974:	e59f0030 	ldr	r0, [pc, #48]	; 109ac <frame_dummy+0x48>
   10978:	e59f1030 	ldr	r1, [pc, #48]	; 109b0 <frame_dummy+0x4c>
   1097c:	e1a00000 	nop			; (mov r0, r0)
   10980:	e59f002c 	ldr	r0, [pc, #44]	; 109b4 <frame_dummy+0x50>
   10984:	e5903000 	ldr	r3, [r0]
   10988:	e3530000 	cmp	r3, #0
   1098c:	0a000003 	beq	109a0 <frame_dummy+0x3c>
   10990:	e59f3020 	ldr	r3, [pc, #32]	; 109b8 <frame_dummy+0x54>
   10994:	e3530000 	cmp	r3, #0
   10998:	0a000000 	beq	109a0 <frame_dummy+0x3c>
   1099c:	e12fff33 	blx	r3
   109a0:	e8bd4008 	pop	{r3, lr}
   109a4:	eaffffce 	b	108e4 <register_tm_clones>
   109a8:	00000000 	.word	0x00000000
   109ac:	0008847c 	.word	0x0008847c
   109b0:	000993f4 	.word	0x000993f4
   109b4:	0009849c 	.word	0x0009849c
   109b8:	00000000 	.word	0x00000000

000109bc <main>:
   109bc:	e92d4800 	push	{fp, lr}
   109c0:	e28db004 	add	fp, sp, #4
   109c4:	e59f000c 	ldr	r0, [pc, #12]	; 109d8 <main+0x1c>
   109c8:	eb001ad4 	bl	17520 <_IO_puts>
   109cc:	e3a03000 	mov	r3, #0
   109d0:	e1a00003 	mov	r0, r3
   109d4:	e8bd8800 	pop	{fp, pc}
   109d8:	00071994 	.word	0x00071994

000109dc <__libc_start_main>:
   109dc:	e59fc304 	ldr	ip, [pc, #772]	; 10ce8 <__libc_start_main+0x30c>
   109e0:	e92d41f0 	push	{r4, r5, r6, r7, r8, lr}
   109e4:	e24dde13 	sub	sp, sp, #304	; 0x130
   109e8:	e35c0000 	cmp	ip, #0
   109ec:	e98d0006 	stmib	sp, {r1, r2}
   109f0:	e1a05003 	mov	r5, r3
   109f4:	e59d3004 	ldr	r3, [sp, #4]
   109f8:	159c2000 	ldrne	r2, [ip]
   109fc:	01a0200c 	moveq	r2, ip
   10a00:	e58d000c 	str	r0, [sp, #12]
   10a04:	e59fe2e0 	ldr	lr, [pc, #736]	; 10cec <__libc_start_main+0x310>
   10a08:	e2830001 	add	r0, r3, #1
   10a0c:	e59fc2dc 	ldr	ip, [pc, #732]	; 10cf0 <__libc_start_main+0x314>
   10a10:	e59f32dc 	ldr	r3, [pc, #732]	; 10cf4 <__libc_start_main+0x318>
   10a14:	e59d4008 	ldr	r4, [sp, #8]
   10a18:	e59d1150 	ldr	r1, [sp, #336]	; 0x150
   10a1c:	116f2f12 	clzne	r2, r2
   10a20:	e0840100 	add	r0, r4, r0, lsl #2
   10a24:	11a022a2 	lsrne	r2, r2, #5
   10a28:	e58e0000 	str	r0, [lr]
   10a2c:	e58c2000 	str	r2, [ip]
   10a30:	e5831000 	str	r1, [r3]
   10a34:	e4902004 	ldr	r2, [r0], #4
   10a38:	e3520000 	cmp	r2, #0
   10a3c:	1afffffc 	bne	10a34 <__libc_start_main+0x58>
   10a40:	eb0063ce 	bl	29980 <_dl_aux_init>
   10a44:	e59f22ac 	ldr	r2, [pc, #684]	; 10cf8 <__libc_start_main+0x31c>
   10a48:	e59f32ac 	ldr	r3, [pc, #684]	; 10cfc <__libc_start_main+0x320>
   10a4c:	e3520000 	cmp	r2, #0
   10a50:	e3a01001 	mov	r1, #1
   10a54:	e5933000 	ldr	r3, [r3]
   10a58:	01a01002 	moveq	r1, r2
   10a5c:	e16f3f13 	clz	r3, r3
   10a60:	e1a032a3 	lsr	r3, r3, #5
   10a64:	e1130001 	tst	r3, r1
   10a68:	0a00000f 	beq	10aac <__libc_start_main+0xd0>
   10a6c:	e59f3284 	ldr	r3, [pc, #644]	; 10cf8 <__libc_start_main+0x31c>
   10a70:	e1d322ba 	ldrh	r2, [r3, #42]	; 0x2a
   10a74:	e3520020 	cmp	r2, #32
   10a78:	0a000004 	beq	10a90 <__libc_start_main+0xb4>
   10a7c:	e59f027c 	ldr	r0, [pc, #636]	; 10d00 <__libc_start_main+0x324>
   10a80:	e59f127c 	ldr	r1, [pc, #636]	; 10d04 <__libc_start_main+0x328>
   10a84:	e3a020ae 	mov	r2, #174	; 0xae
   10a88:	e59f3278 	ldr	r3, [pc, #632]	; 10d08 <__libc_start_main+0x32c>
   10a8c:	eb00023e 	bl	1138c <__assert_fail>
   10a90:	e1d302bc 	ldrh	r0, [r3, #44]	; 0x2c
   10a94:	e593201c 	ldr	r2, [r3, #28]
   10a98:	e59fc25c 	ldr	ip, [pc, #604]	; 10cfc <__libc_start_main+0x320>
   10a9c:	e59f1268 	ldr	r1, [pc, #616]	; 10d0c <__libc_start_main+0x330>
   10aa0:	e0823003 	add	r3, r2, r3
   10aa4:	e58c3000 	str	r3, [ip]
   10aa8:	e5810000 	str	r0, [r1]
   10aac:	e59f323c 	ldr	r3, [pc, #572]	; 10cf0 <__libc_start_main+0x314>
   10ab0:	e5933000 	ldr	r3, [r3]
   10ab4:	e3530000 	cmp	r3, #0
   10ab8:	1a00000b 	bne	10aec <__libc_start_main+0x110>
   10abc:	eb006794 	bl	2a914 <_dl_discover_osversion>
   10ac0:	e3500000 	cmp	r0, #0
   10ac4:	ba00007e 	blt	10cc4 <__libc_start_main+0x2e8>
   10ac8:	e59f3240 	ldr	r3, [pc, #576]	; 10d10 <__libc_start_main+0x334>
   10acc:	e5933000 	ldr	r3, [r3]
   10ad0:	e3530000 	cmp	r3, #0
   10ad4:	1a000062 	bne	10c64 <__libc_start_main+0x288>
   10ad8:	e59f3230 	ldr	r3, [pc, #560]	; 10d10 <__libc_start_main+0x334>
   10adc:	e5830000 	str	r0, [r3]
   10ae0:	e59f322c 	ldr	r3, [pc, #556]	; 10d14 <__libc_start_main+0x338>
   10ae4:	e1500003 	cmp	r0, r3
   10ae8:	da00005b 	ble	10c5c <__libc_start_main+0x280>
   10aec:	e59f4224 	ldr	r4, [pc, #548]	; 10d18 <__libc_start_main+0x33c>
   10af0:	e59f7224 	ldr	r7, [pc, #548]	; 10d1c <__libc_start_main+0x340>
   10af4:	e1540007 	cmp	r4, r7
   10af8:	2a000015 	bcs	10b54 <__libc_start_main+0x178>
   10afc:	e5d43004 	ldrb	r3, [r4, #4]
   10b00:	e5946000 	ldr	r6, [r4]
   10b04:	e35300a0 	cmp	r3, #160	; 0xa0
   10b08:	1a00000f 	bne	10b4c <__libc_start_main+0x170>
   10b0c:	e1e03004 	mvn	r3, r4
   10b10:	e0837007 	add	r7, r3, r7
   10b14:	e3c77007 	bic	r7, r7, #7
   10b18:	e59f8200 	ldr	r8, [pc, #512]	; 10d20 <__libc_start_main+0x344>
   10b1c:	e0847007 	add	r7, r4, r7
   10b20:	e5963000 	ldr	r3, [r6]
   10b24:	e5980000 	ldr	r0, [r8]
   10b28:	e12fff33 	blx	r3
   10b2c:	e1540007 	cmp	r4, r7
   10b30:	e5860000 	str	r0, [r6]
   10b34:	0a000006 	beq	10b54 <__libc_start_main+0x178>
   10b38:	e1a03004 	mov	r3, r4
   10b3c:	e5b46008 	ldr	r6, [r4, #8]!
   10b40:	e5d3300c 	ldrb	r3, [r3, #12]
   10b44:	e35300a0 	cmp	r3, #160	; 0xa0
   10b48:	0afffff4 	beq	10b20 <__libc_start_main+0x144>
   10b4c:	e59f01d0 	ldr	r0, [pc, #464]	; 10d24 <__libc_start_main+0x348>
   10b50:	eb0021e3 	bl	192e4 <__libc_fatal>
   10b54:	eb00016b 	bl	11108 <__pthread_initialize_minimal>
   10b58:	e59f31c8 	ldr	r3, [pc, #456]	; 10d28 <__libc_start_main+0x34c>
   10b5c:	e5931000 	ldr	r1, [r3]
   10b60:	e3510000 	cmp	r1, #0
   10b64:	0a000058 	beq	10ccc <__libc_start_main+0x2f0>
   10b68:	e5d10001 	ldrb	r0, [r1, #1]
   10b6c:	e5d12000 	ldrb	r2, [r1]
   10b70:	e5d13002 	ldrb	r3, [r1, #2]
   10b74:	e5d1c003 	ldrb	ip, [r1, #3]
   10b78:	e1822400 	orr	r2, r2, r0, lsl #8
   10b7c:	e59f01a8 	ldr	r0, [pc, #424]	; 10d2c <__libc_start_main+0x350>
   10b80:	e1823803 	orr	r3, r2, r3, lsl #16
   10b84:	e1833c0c 	orr	r3, r3, ip, lsl #24
   10b88:	e3c330ff 	bic	r3, r3, #255	; 0xff
   10b8c:	e5803000 	str	r3, [r0]
   10b90:	e5910004 	ldr	r0, [r1, #4]
   10b94:	e58d0018 	str	r0, [sp, #24]
   10b98:	e59f318c 	ldr	r3, [pc, #396]	; 10d2c <__libc_start_main+0x350>
   10b9c:	e59d114c 	ldr	r1, [sp, #332]	; 0x14c
   10ba0:	e59d2018 	ldr	r2, [sp, #24]
   10ba4:	e3510000 	cmp	r1, #0
   10ba8:	e5832004 	str	r2, [r3, #4]
   10bac:	0a000003 	beq	10bc0 <__libc_start_main+0x1e4>
   10bb0:	e3a01000 	mov	r1, #0
   10bb4:	e1a02001 	mov	r2, r1
   10bb8:	e59d014c 	ldr	r0, [sp, #332]	; 0x14c
   10bbc:	eb0016e4 	bl	16754 <__cxa_atexit>
   10bc0:	e59f3124 	ldr	r3, [pc, #292]	; 10cec <__libc_start_main+0x310>
   10bc4:	e99d0003 	ldmib	sp, {r0, r1}
   10bc8:	e5932000 	ldr	r2, [r3]
   10bcc:	eb006793 	bl	2aa20 <__libc_init_first>
   10bd0:	e59d3148 	ldr	r3, [sp, #328]	; 0x148
   10bd4:	e3530000 	cmp	r3, #0
   10bd8:	0a000003 	beq	10bec <__libc_start_main+0x210>
   10bdc:	e3a01000 	mov	r1, #0
   10be0:	e1a02001 	mov	r2, r1
   10be4:	e59d0148 	ldr	r0, [sp, #328]	; 0x148
   10be8:	eb0016d9 	bl	16754 <__cxa_atexit>
   10bec:	e59f313c 	ldr	r3, [pc, #316]	; 10d30 <__libc_start_main+0x354>
   10bf0:	e5933000 	ldr	r3, [r3]
   10bf4:	e3530000 	cmp	r3, #0
   10bf8:	1a000038 	bne	10ce0 <__libc_start_main+0x304>
   10bfc:	e3550000 	cmp	r5, #0
   10c00:	0a000003 	beq	10c14 <__libc_start_main+0x238>
   10c04:	e59f30e0 	ldr	r3, [pc, #224]	; 10cec <__libc_start_main+0x310>
   10c08:	e99d0003 	ldmib	sp, {r0, r1}
   10c0c:	e5932000 	ldr	r2, [r3]
   10c10:	e12fff35 	blx	r5
   10c14:	e28d0018 	add	r0, sp, #24
   10c18:	eb0013a4 	bl	15ab0 <_setjmp>
   10c1c:	e3500000 	cmp	r0, #0
   10c20:	1a000012 	bne	10c70 <__libc_start_main+0x294>
   10c24:	e59f20c0 	ldr	r2, [pc, #192]	; 10cec <__libc_start_main+0x310>
   10c28:	eb000178 	bl	11210 <__aeabi_read_tp>
   10c2c:	e1a03000 	mov	r3, r0
   10c30:	e510e440 	ldr	lr, [r0, #-1088]	; 0xfffffbc0
   10c34:	e510c444 	ldr	ip, [r0, #-1092]	; 0xfffffbbc
   10c38:	e28d4018 	add	r4, sp, #24
   10c3c:	e5034440 	str	r4, [r3, #-1088]	; 0xfffffbc0
   10c40:	e99d0003 	ldmib	sp, {r0, r1}
   10c44:	e5922000 	ldr	r2, [r2]
   10c48:	e59d300c 	ldr	r3, [sp, #12]
   10c4c:	e58de120 	str	lr, [sp, #288]	; 0x120
   10c50:	e58dc124 	str	ip, [sp, #292]	; 0x124
   10c54:	e12fff33 	blx	r3
   10c58:	eb00162a 	bl	16508 <exit>
   10c5c:	e59f00d0 	ldr	r0, [pc, #208]	; 10d34 <__libc_start_main+0x358>
   10c60:	eb00219f 	bl	192e4 <__libc_fatal>
   10c64:	e1530000 	cmp	r3, r0
   10c68:	9affff9c 	bls	10ae0 <__libc_start_main+0x104>
   10c6c:	eaffff99 	b	10ad8 <__libc_start_main+0xfc>
   10c70:	e1a00000 	nop			; (mov r0, r0)
   10c74:	e59f20bc 	ldr	r2, [pc, #188]	; 10d38 <__libc_start_main+0x35c>
   10c78:	e5923000 	ldr	r3, [r2]
   10c7c:	e2431001 	sub	r1, r3, #1
   10c80:	e58d3014 	str	r3, [sp, #20]
   10c84:	e1920f9f 	ldrex	r0, [r2]
   10c88:	e1500003 	cmp	r0, r3
   10c8c:	1a000003 	bne	10ca0 <__libc_start_main+0x2c4>
   10c90:	e182cf91 	strex	ip, r1, [r2]
   10c94:	e35c0000 	cmp	ip, #0
   10c98:	1afffff9 	bne	10c84 <__libc_start_main+0x2a8>
   10c9c:	ee070fba 	mcr	15, 0, r0, cr7, cr10, {5}
   10ca0:	03a01001 	moveq	r1, #1
   10ca4:	13a01000 	movne	r1, #0
   10ca8:	158d0014 	strne	r0, [sp, #20]
   10cac:	e3510000 	cmp	r1, #0
   10cb0:	0afffff0 	beq	10c78 <__libc_start_main+0x29c>
   10cb4:	e3530001 	cmp	r3, #1
   10cb8:	e3a00000 	mov	r0, #0
   10cbc:	0affffe5 	beq	10c58 <__libc_start_main+0x27c>
   10cc0:	eb00594a 	bl	271f0 <__exit_thread>
   10cc4:	e59f0070 	ldr	r0, [pc, #112]	; 10d3c <__libc_start_main+0x360>
   10cc8:	eb002185 	bl	192e4 <__libc_fatal>
   10ccc:	e59f2058 	ldr	r2, [pc, #88]	; 10d2c <__libc_start_main+0x350>
   10cd0:	e59f3068 	ldr	r3, [pc, #104]	; 10d40 <__libc_start_main+0x364>
   10cd4:	e5823000 	str	r3, [r2]
   10cd8:	e58d3018 	str	r3, [sp, #24]
   10cdc:	eaffffad 	b	10b98 <__libc_start_main+0x1bc>
   10ce0:	eb000054 	bl	10e38 <__libc_check_standard_fds>
   10ce4:	eaffffc4 	b	10bfc <__libc_start_main+0x220>
   10ce8:	00000000 	.word	0x00000000
   10cec:	0009997c 	.word	0x0009997c
   10cf0:	000991a8 	.word	0x000991a8
   10cf4:	000984ec 	.word	0x000984ec
   10cf8:	00010000 	.word	0x00010000
   10cfc:	0009a42c 	.word	0x0009a42c
   10d00:	000719a4 	.word	0x000719a4
   10d04:	000719d4 	.word	0x000719d4
   10d08:	00071a4c 	.word	0x00071a4c
   10d0c:	0009a44c 	.word	0x0009a44c
   10d10:	0009a45c 	.word	0x0009a45c
   10d14:	0002060f 	.word	0x0002060f
   10d18:	00010114 	.word	0x00010114
   10d1c:	00010114 	.word	0x00010114
   10d20:	00099ed0 	.word	0x00099ed0
   10d24:	00071a24 	.word	0x00071a24
   10d28:	000984a8 	.word	0x000984a8
   10d2c:	000984a0 	.word	0x000984a0
   10d30:	000984f0 	.word	0x000984f0
   10d34:	000719e4 	.word	0x000719e4
   10d38:	00000000 	.word	0x00000000
   10d3c:	000719fc 	.word	0x000719fc
   10d40:	ff0a0000 	.word	0xff0a0000

00010d44 <check_one_fd>:
   10d44:	e92d40f0 	push	{r4, r5, r6, r7, lr}
   10d48:	e1a07001 	mov	r7, r1
   10d4c:	e24dd06c 	sub	sp, sp, #108	; 0x6c
   10d50:	e3a01001 	mov	r1, #1
   10d54:	e1a06000 	mov	r6, r0
   10d58:	eb0059c5 	bl	27474 <__libc_fcntl>
   10d5c:	e3700001 	cmn	r0, #1
   10d60:	e1a03000 	mov	r3, r0
   10d64:	0a000001 	beq	10d70 <check_one_fd+0x2c>
   10d68:	e28dd06c 	add	sp, sp, #108	; 0x6c
   10d6c:	e8bd80f0 	pop	{r4, r5, r6, r7, pc}
   10d70:	e59f20a8 	ldr	r2, [pc, #168]	; 10e20 <check_one_fd+0xdc>
   10d74:	eb000125 	bl	11210 <__aeabi_read_tp>
   10d78:	e79f2002 	ldr	r2, [pc, r2]
   10d7c:	e7902002 	ldr	r2, [r0, r2]
   10d80:	e3520009 	cmp	r2, #9
   10d84:	1afffff7 	bne	10d68 <check_one_fd+0x24>
   10d88:	e2072003 	and	r2, r7, #3
   10d8c:	e3520001 	cmp	r2, #1
   10d90:	e1a01007 	mov	r1, r7
   10d94:	159f4088 	ldrne	r4, [pc, #136]	; 10e24 <check_one_fd+0xe0>
   10d98:	13a05000 	movne	r5, #0
   10d9c:	159f0084 	ldrne	r0, [pc, #132]	; 10e28 <check_one_fd+0xe4>
   10da0:	059f0084 	ldreq	r0, [pc, #132]	; 10e2c <check_one_fd+0xe8>
   10da4:	059f4084 	ldreq	r4, [pc, #132]	; 10e30 <check_one_fd+0xec>
   10da8:	03a05000 	moveq	r5, #0
   10dac:	e3a02000 	mov	r2, #0
   10db0:	e3a07005 	mov	r7, #5
   10db4:	ef000000 	svc	0x00000000
   10db8:	e3700a01 	cmn	r0, #4096	; 0x1000
   10dbc:	8a000011 	bhi	10e08 <check_one_fd+0xc4>
   10dc0:	e1a03000 	mov	r3, r0
   10dc4:	e1560003 	cmp	r6, r3
   10dc8:	1a00000d 	bne	10e04 <check_one_fd+0xc0>
   10dcc:	e1a01006 	mov	r1, r6
   10dd0:	e3a00003 	mov	r0, #3
   10dd4:	e1a0200d 	mov	r2, sp
   10dd8:	eb00590c 	bl	27210 <___fxstat64>
   10ddc:	e3500000 	cmp	r0, #0
   10de0:	1a000007 	bne	10e04 <check_one_fd+0xc0>
   10de4:	e59d3010 	ldr	r3, [sp, #16]
   10de8:	e2033a0f 	and	r3, r3, #61440	; 0xf000
   10dec:	e3530a02 	cmp	r3, #8192	; 0x2000
   10df0:	1a000003 	bne	10e04 <check_one_fd+0xc0>
   10df4:	e1cd22d0 	ldrd	r2, [sp, #32]
   10df8:	e1530005 	cmp	r3, r5
   10dfc:	01520004 	cmpeq	r2, r4
   10e00:	0affffd8 	beq	10d68 <check_one_fd+0x24>
   10e04:	eafffffe 	b	10e04 <check_one_fd+0xc0>
   10e08:	e59f1024 	ldr	r1, [pc, #36]	; 10e34 <check_one_fd+0xf0>
   10e0c:	e2602000 	rsb	r2, r0, #0
   10e10:	eb0000fe 	bl	11210 <__aeabi_read_tp>
   10e14:	e79f1001 	ldr	r1, [pc, r1]
   10e18:	e7802001 	str	r2, [r0, r1]
   10e1c:	eaffffe8 	b	10dc4 <check_one_fd+0x80>
   10e20:	000877d4 	.word	0x000877d4
   10e24:	00000103 	.word	0x00000103
   10e28:	00071a6c 	.word	0x00071a6c
   10e2c:	00071a60 	.word	0x00071a60
   10e30:	00000107 	.word	0x00000107
   10e34:	00087738 	.word	0x00087738

00010e38 <__libc_check_standard_fds>:
   10e38:	e92d4008 	push	{r3, lr}
   10e3c:	e3a00000 	mov	r0, #0
   10e40:	e59f101c 	ldr	r1, [pc, #28]	; 10e64 <__libc_check_standard_fds+0x2c>
   10e44:	ebffffbe 	bl	10d44 <check_one_fd>
   10e48:	e3a00001 	mov	r0, #1
   10e4c:	e3a01902 	mov	r1, #32768	; 0x8000
   10e50:	ebffffbb 	bl	10d44 <check_one_fd>
   10e54:	e3a00002 	mov	r0, #2
   10e58:	e3a01902 	mov	r1, #32768	; 0x8000
   10e5c:	e8bd4008 	pop	{r3, lr}
   10e60:	eaffffb7 	b	10d44 <check_one_fd>
   10e64:	00008001 	.word	0x00008001

00010e68 <__libc_setup_tls>:
   10e68:	e59f31ec 	ldr	r3, [pc, #492]	; 1105c <__libc_setup_tls+0x1f4>
   10e6c:	e92d4ff0 	push	{r4, r5, r6, r7, r8, r9, sl, fp, lr}
   10e70:	e1a05001 	mov	r5, r1
   10e74:	e5934000 	ldr	r4, [r3]
   10e78:	e24dd014 	sub	sp, sp, #20
   10e7c:	e3540000 	cmp	r4, #0
   10e80:	0a00001c 	beq	10ef8 <__libc_setup_tls+0x90>
   10e84:	e59f31d4 	ldr	r3, [pc, #468]	; 11060 <__libc_setup_tls+0x1f8>
   10e88:	e5932000 	ldr	r2, [r3]
   10e8c:	e0842282 	add	r2, r4, r2, lsl #5
   10e90:	e1520004 	cmp	r2, r4
   10e94:	8a000003 	bhi	10ea8 <__libc_setup_tls+0x40>
   10e98:	ea000015 	b	10ef4 <__libc_setup_tls+0x8c>
   10e9c:	e2844020 	add	r4, r4, #32
   10ea0:	e1520004 	cmp	r2, r4
   10ea4:	9a000012 	bls	10ef4 <__libc_setup_tls+0x8c>
   10ea8:	e5943000 	ldr	r3, [r4]
   10eac:	e3530007 	cmp	r3, #7
   10eb0:	1afffff9 	bne	10e9c <__libc_setup_tls+0x34>
   10eb4:	e594801c 	ldr	r8, [r4, #28]
   10eb8:	e5943014 	ldr	r3, [r4, #20]
   10ebc:	e1550008 	cmp	r5, r8
   10ec0:	e58d3000 	str	r3, [sp]
   10ec4:	e5943010 	ldr	r3, [r4, #16]
   10ec8:	31a05008 	movcc	r5, r8
   10ecc:	e3580000 	cmp	r8, #0
   10ed0:	e58d3004 	str	r3, [sp, #4]
   10ed4:	e5944008 	ldr	r4, [r4, #8]
   10ed8:	0a000008 	beq	10f00 <__libc_setup_tls+0x98>
   10edc:	e2483001 	sub	r3, r8, #1
   10ee0:	e0830000 	add	r0, r3, r0
   10ee4:	e1a01008 	mov	r1, r8
   10ee8:	eb017780 	bl	6ecf0 <__aeabi_uidiv>
   10eec:	e1a0a008 	mov	sl, r8
   10ef0:	ea000004 	b	10f08 <__libc_setup_tls+0xa0>
   10ef4:	e3a04000 	mov	r4, #0
   10ef8:	e58d4004 	str	r4, [sp, #4]
   10efc:	e58d4000 	str	r4, [sp]
   10f00:	e3a08000 	mov	r8, #0
   10f04:	e3a0a001 	mov	sl, #1
   10f08:	e59f3154 	ldr	r3, [pc, #340]	; 11064 <__libc_setup_tls+0x1fc>
   10f0c:	e00a009a 	mul	sl, sl, r0
   10f10:	e5930000 	ldr	r0, [r3]
   10f14:	e58d300c 	str	r3, [sp, #12]
   10f18:	e59d3000 	ldr	r3, [sp]
   10f1c:	e2800d13 	add	r0, r0, #1216	; 0x4c0
   10f20:	e0800003 	add	r0, r0, r3
   10f24:	e0800005 	add	r0, r0, r5
   10f28:	e080000a 	add	r0, r0, sl
   10f2c:	eb005c23 	bl	27fc0 <__sbrk>
   10f30:	e59f2130 	ldr	r2, [pc, #304]	; 11068 <__libc_setup_tls+0x200>
   10f34:	e2456001 	sub	r6, r5, #1
   10f38:	e59f912c 	ldr	r9, [pc, #300]	; 1106c <__libc_setup_tls+0x204>
   10f3c:	e592b000 	ldr	fp, [r2]
   10f40:	e265e000 	rsb	lr, r5, #0
   10f44:	e3a0c001 	mov	ip, #1
   10f48:	e3a0203e 	mov	r2, #62	; 0x3e
   10f4c:	e5892000 	str	r2, [r9]
   10f50:	e5c9c014 	strb	ip, [r9, #20]
   10f54:	e58ba23c 	str	sl, [fp, #572]	; 0x23c
   10f58:	e1a01004 	mov	r1, r4
   10f5c:	e59d2004 	ldr	r2, [sp, #4]
   10f60:	e2899008 	add	r9, r9, #8
   10f64:	e58dc008 	str	ip, [sp, #8]
   10f68:	e59f7100 	ldr	r7, [pc, #256]	; 11070 <__libc_setup_tls+0x208>
   10f6c:	e2800d13 	add	r0, r0, #1216	; 0x4c0
   10f70:	e0860000 	add	r0, r6, r0
   10f74:	e000600e 	and	r6, r0, lr
   10f78:	e086e00a 	add	lr, r6, sl
   10f7c:	e589e008 	str	lr, [r9, #8]
   10f80:	e1a0000e 	mov	r0, lr
   10f84:	eb0053b9 	bl	25e70 <memcpy>
   10f88:	e5869000 	str	r9, [r6]
   10f8c:	e1a00006 	mov	r0, r6
   10f90:	ef000000 	svc	0x00000000
   10f94:	e3700a01 	cmn	r0, #4096	; 0x1000
   10f98:	e59dc008 	ldr	ip, [sp, #8]
   10f9c:	e59d300c 	ldr	r3, [sp, #12]
   10fa0:	9a000001 	bls	10fac <__libc_setup_tls+0x144>
   10fa4:	e59f00c8 	ldr	r0, [pc, #200]	; 11074 <__libc_setup_tls+0x20c>
   10fa8:	eb0020cd 	bl	192e4 <__libc_fatal>
   10fac:	e59f20c4 	ldr	r2, [pc, #196]	; 11078 <__libc_setup_tls+0x210>
   10fb0:	e59f00c4 	ldr	r0, [pc, #196]	; 1107c <__libc_setup_tls+0x214>
   10fb4:	e59f10c4 	ldr	r1, [pc, #196]	; 11080 <__libc_setup_tls+0x218>
   10fb8:	e59d6000 	ldr	r6, [sp]
   10fbc:	e58b4228 	str	r4, [fp, #552]	; 0x228
   10fc0:	e59d4004 	ldr	r4, [sp, #4]
   10fc4:	e3580000 	cmp	r8, #0
   10fc8:	e3a0e040 	mov	lr, #64	; 0x40
   10fcc:	e58b8234 	str	r8, [fp, #564]	; 0x234
   10fd0:	e5802000 	str	r2, [r0]
   10fd4:	e58b6230 	str	r6, [fp, #560]	; 0x230
   10fd8:	e58b422c 	str	r4, [fp, #556]	; 0x22c
   10fdc:	e58bc240 	str	ip, [fp, #576]	; 0x240
   10fe0:	e582b014 	str	fp, [r2, #20]
   10fe4:	e582e000 	str	lr, [r2]
   10fe8:	e581c000 	str	ip, [r1]
   10fec:	01a00006 	moveq	r0, r6
   10ff0:	01a0800c 	moveq	r8, ip
   10ff4:	1a000010 	bne	1103c <__libc_setup_tls+0x1d4>
   10ff8:	e028a098 	mla	r8, r8, r0, sl
   10ffc:	e5932000 	ldr	r2, [r3]
   11000:	e59fe07c 	ldr	lr, [pc, #124]	; 11084 <__libc_setup_tls+0x21c>
   11004:	e59fc07c 	ldr	ip, [pc, #124]	; 11088 <__libc_setup_tls+0x220>
   11008:	e59f107c 	ldr	r1, [pc, #124]	; 1108c <__libc_setup_tls+0x224>
   1100c:	e282200f 	add	r2, r2, #15
   11010:	e3550010 	cmp	r5, #16
   11014:	e0822008 	add	r2, r2, r8
   11018:	33a05010 	movcc	r5, #16
   1101c:	e3c2200f 	bic	r2, r2, #15
   11020:	e3a00001 	mov	r0, #1
   11024:	e58e5000 	str	r5, [lr]
   11028:	e58c8000 	str	r8, [ip]
   1102c:	e5832000 	str	r2, [r3]
   11030:	e5810000 	str	r0, [r1]
   11034:	e28dd014 	add	sp, sp, #20
   11038:	e8bd8ff0 	pop	{r4, r5, r6, r7, r8, r9, sl, fp, pc}
   1103c:	e58d3004 	str	r3, [sp, #4]
   11040:	e59d3000 	ldr	r3, [sp]
   11044:	e1a01008 	mov	r1, r8
   11048:	e0830008 	add	r0, r3, r8
   1104c:	e2400001 	sub	r0, r0, #1
   11050:	eb017726 	bl	6ecf0 <__aeabi_uidiv>
   11054:	e59d3004 	ldr	r3, [sp, #4]
   11058:	eaffffe6 	b	10ff8 <__libc_setup_tls+0x190>
   1105c:	0009a42c 	.word	0x0009a42c
   11060:	0009a44c 	.word	0x0009a44c
   11064:	00098590 	.word	0x00098590
   11068:	00099140 	.word	0x00099140
   1106c:	0009a1d4 	.word	0x0009a1d4
   11070:	000f0005 	.word	0x000f0005
   11074:	00071a78 	.word	0x00071a78
   11078:	0009940c 	.word	0x0009940c
   1107c:	0009a3d4 	.word	0x0009a3d4
   11080:	0009a1d0 	.word	0x0009a1d0
   11084:	0009a1cc 	.word	0x0009a1cc
   11088:	0009a1c8 	.word	0x0009a1c8
   1108c:	0009a3e0 	.word	0x0009a3e0

00011090 <_dl_tls_setup>:
   11090:	e59fc054 	ldr	ip, [pc, #84]	; 110ec <_dl_tls_setup+0x5c>
   11094:	e92d43f0 	push	{r4, r5, r6, r7, r8, r9, lr}
   11098:	e3a02001 	mov	r2, #1
   1109c:	e59c3000 	ldr	r3, [ip]
   110a0:	e59f1048 	ldr	r1, [pc, #72]	; 110f0 <_dl_tls_setup+0x60>
   110a4:	e59f8048 	ldr	r8, [pc, #72]	; 110f4 <_dl_tls_setup+0x64>
   110a8:	e59f7048 	ldr	r7, [pc, #72]	; 110f8 <_dl_tls_setup+0x68>
   110ac:	e59f6048 	ldr	r6, [pc, #72]	; 110fc <_dl_tls_setup+0x6c>
   110b0:	e59f5048 	ldr	r5, [pc, #72]	; 11100 <_dl_tls_setup+0x70>
   110b4:	e59fe048 	ldr	lr, [pc, #72]	; 11104 <_dl_tls_setup+0x74>
   110b8:	e283300f 	add	r3, r3, #15
   110bc:	e3c3300f 	bic	r3, r3, #15
   110c0:	e3a09040 	mov	r9, #64	; 0x40
   110c4:	e3a00000 	mov	r0, #0
   110c8:	e3a04010 	mov	r4, #16
   110cc:	e58c3000 	str	r3, [ip]
   110d0:	e5819000 	str	r9, [r1]
   110d4:	e5881000 	str	r1, [r8]
   110d8:	e5872000 	str	r2, [r7]
   110dc:	e5862000 	str	r2, [r6]
   110e0:	e5850000 	str	r0, [r5]
   110e4:	e58e4000 	str	r4, [lr]
   110e8:	e8bd83f0 	pop	{r4, r5, r6, r7, r8, r9, pc}
   110ec:	00098590 	.word	0x00098590
   110f0:	0009940c 	.word	0x0009940c
   110f4:	0009a3d4 	.word	0x0009a3d4
   110f8:	0009a1d0 	.word	0x0009a1d0
   110fc:	0009a3e0 	.word	0x0009a3e0
   11100:	0009a1c8 	.word	0x0009a1c8
   11104:	0009a1cc 	.word	0x0009a1cc

00011108 <__pthread_initialize_minimal>:
   11108:	e3a00008 	mov	r0, #8
   1110c:	e3a01010 	mov	r1, #16
   11110:	eaffff54 	b	10e68 <__libc_setup_tls>

00011114 <__tls_get_addr>:
   11114:	e52de004 	push	{lr}		; (str lr, [sp, #-4]!)
   11118:	e1a03000 	mov	r3, r0
   1111c:	eb00003b 	bl	11210 <__aeabi_read_tp>
   11120:	e5902000 	ldr	r2, [r0]
   11124:	e5933004 	ldr	r3, [r3, #4]
   11128:	e5920008 	ldr	r0, [r2, #8]
   1112c:	e0800003 	add	r0, r0, r3
   11130:	e49df004 	pop	{pc}		; (ldr pc, [sp], #4)

00011134 <__libc_csu_init>:
   11134:	e92d43f8 	push	{r3, r4, r5, r6, r7, r8, r9, lr}
   11138:	e1a06000 	mov	r6, r0
   1113c:	e59f907c 	ldr	r9, [pc, #124]	; 111c0 <__libc_csu_init+0x8c>
   11140:	e59f507c 	ldr	r5, [pc, #124]	; 111c4 <__libc_csu_init+0x90>
   11144:	e1a07001 	mov	r7, r1
   11148:	e0659009 	rsb	r9, r5, r9
   1114c:	e1a08002 	mov	r8, r2
   11150:	e1b09149 	asrs	r9, r9, #2
   11154:	13a04000 	movne	r4, #0
   11158:	0a000007 	beq	1117c <__libc_csu_init+0x48>
   1115c:	e2844001 	add	r4, r4, #1
   11160:	e4953004 	ldr	r3, [r5], #4
   11164:	e1a00006 	mov	r0, r6
   11168:	e1a01007 	mov	r1, r7
   1116c:	e1a02008 	mov	r2, r8
   11170:	e12fff33 	blx	r3
   11174:	e1540009 	cmp	r4, r9
   11178:	1afffff7 	bne	1115c <__libc_csu_init+0x28>
   1117c:	e59f9044 	ldr	r9, [pc, #68]	; 111c8 <__libc_csu_init+0x94>
   11180:	e59f5044 	ldr	r5, [pc, #68]	; 111cc <__libc_csu_init+0x98>
   11184:	ebfffbe2 	bl	10114 <__rel_iplt_end>
   11188:	e0659009 	rsb	r9, r5, r9
   1118c:	e1b09149 	asrs	r9, r9, #2
   11190:	0a000009 	beq	111bc <__libc_csu_init+0x88>
   11194:	e3a04000 	mov	r4, #0
   11198:	e2844001 	add	r4, r4, #1
   1119c:	e4953004 	ldr	r3, [r5], #4
   111a0:	e1a00006 	mov	r0, r6
   111a4:	e1a01007 	mov	r1, r7
   111a8:	e1a02008 	mov	r2, r8
   111ac:	e12fff33 	blx	r3
   111b0:	e1540009 	cmp	r4, r9
   111b4:	1afffff7 	bne	11198 <__libc_csu_init+0x64>
   111b8:	e8bd83f8 	pop	{r3, r4, r5, r6, r7, r8, r9, pc}
   111bc:	e8bd83f8 	pop	{r3, r4, r5, r6, r7, r8, r9, pc}
   111c0:	00098490 	.word	0x00098490
   111c4:	00098490 	.word	0x00098490
   111c8:	00098494 	.word	0x00098494
   111cc:	00098490 	.word	0x00098490

000111d0 <__libc_csu_fini>:
   111d0:	e92d4038 	push	{r3, r4, r5, lr}
   111d4:	e59f5028 	ldr	r5, [pc, #40]	; 11204 <__libc_csu_fini+0x34>
   111d8:	e59f3028 	ldr	r3, [pc, #40]	; 11208 <__libc_csu_fini+0x38>
   111dc:	e0653003 	rsb	r3, r5, r3
   111e0:	e1b04143 	asrs	r4, r3, #2
   111e4:	10835005 	addne	r5, r3, r5
   111e8:	0a000003 	beq	111fc <__libc_csu_fini+0x2c>
   111ec:	e5353004 	ldr	r3, [r5, #-4]!
   111f0:	e12fff33 	blx	r3
   111f4:	e2544001 	subs	r4, r4, #1
   111f8:	1afffffb 	bne	111ec <__libc_csu_fini+0x1c>
   111fc:	e8bd4038 	pop	{r3, r4, r5, lr}
   11200:	ea0181e0 	b	71988 <_fini>
   11204:	00098494 	.word	0x00098494
   11208:	0009849c 	.word	0x0009849c
   1120c:	00000000 	.word	0x00000000

00011210 <__aeabi_read_tp>:
   11210:	e3e00a0f 	mvn	r0, #61440	; 0xf000
   11214:	e240f01f 	sub	pc, r0, #31
   11218:	e1a00000 	nop			; (mov r0, r0)
   1121c:	e1a00000 	nop			; (mov r0, r0)

00011220 <__assert_fail_base>:
   11220:	e59fc140 	ldr	ip, [pc, #320]	; 11368 <__assert_fail_base+0x148>
   11224:	e92d4080 	push	{r7, lr}
   11228:	e24dd020 	sub	sp, sp, #32
   1122c:	e35c0000 	cmp	ip, #0
   11230:	e1a05000 	mov	r5, r0
   11234:	e1a06001 	mov	r6, r1
   11238:	e1a07002 	mov	r7, r2
   1123c:	e1a08003 	mov	r8, r3
   11240:	e59d4028 	ldr	r4, [sp, #40]	; 0x28
   11244:	0a000002 	beq	11254 <__assert_fail_base+0x34>
   11248:	e3a00001 	mov	r0, #1
   1124c:	e3a01000 	mov	r1, #0
   11250:	e1a00000 	nop			; (mov r0, r0)
   11254:	e59f3110 	ldr	r3, [pc, #272]	; 1136c <__assert_fail_base+0x14c>
   11258:	e59fc110 	ldr	ip, [pc, #272]	; 11370 <__assert_fail_base+0x150>
   1125c:	e59f1110 	ldr	r1, [pc, #272]	; 11374 <__assert_fail_base+0x154>
   11260:	e5932000 	ldr	r2, [r3]
   11264:	e28d001c 	add	r0, sp, #28
   11268:	e5d2e000 	ldrb	lr, [r2]
   1126c:	e58d0014 	str	r0, [sp, #20]
   11270:	e88d0180 	stm	sp, {r7, r8}
   11274:	e35e0000 	cmp	lr, #0
   11278:	01a03001 	moveq	r3, r1
   1127c:	11a0300c 	movne	r3, ip
   11280:	e3540000 	cmp	r4, #0
   11284:	01a04001 	moveq	r4, r1
   11288:	01a0c004 	moveq	ip, r4
   1128c:	e58d4008 	str	r4, [sp, #8]
   11290:	e58dc00c 	str	ip, [sp, #12]
   11294:	e58d6010 	str	r6, [sp, #16]
   11298:	e1a01005 	mov	r1, r5
   1129c:	e28d0018 	add	r0, sp, #24
   112a0:	eb001702 	bl	16eb0 <___asprintf>
   112a4:	e3500000 	cmp	r0, #0
   112a8:	ba000029 	blt	11354 <__assert_fail_base+0x134>
   112ac:	e59f10c4 	ldr	r1, [pc, #196]	; 11378 <__assert_fail_base+0x158>
   112b0:	e59d2018 	ldr	r2, [sp, #24]
   112b4:	e3a00000 	mov	r0, #0
   112b8:	eb001708 	bl	16ee0 <__fxprintf>
   112bc:	e59f30b8 	ldr	r3, [pc, #184]	; 1137c <__assert_fail_base+0x15c>
   112c0:	e5930000 	ldr	r0, [r3]
   112c4:	eb0017f5 	bl	172a0 <_IO_fflush>
   112c8:	e59f30b0 	ldr	r3, [pc, #176]	; 11380 <__assert_fail_base+0x160>
   112cc:	e59dc01c 	ldr	ip, [sp, #28]
   112d0:	e3e02000 	mvn	r2, #0
   112d4:	e5933000 	ldr	r3, [r3]
   112d8:	e3a00000 	mov	r0, #0
   112dc:	e083c00c 	add	ip, r3, ip
   112e0:	e2633000 	rsb	r3, r3, #0
   112e4:	e00cc003 	and	ip, ip, r3
   112e8:	e58d2000 	str	r2, [sp]
   112ec:	e1a0100c 	mov	r1, ip
   112f0:	e58d0004 	str	r0, [sp, #4]
   112f4:	e3a02003 	mov	r2, #3
   112f8:	e3a03022 	mov	r3, #34	; 0x22
   112fc:	e58dc01c 	str	ip, [sp, #28]
   11300:	eb005b6a 	bl	280b0 <__mmap>
   11304:	e3700001 	cmn	r0, #1
   11308:	e1a04000 	mov	r4, r0
   1130c:	0a00000d 	beq	11348 <__assert_fail_base+0x128>
   11310:	e59d301c 	ldr	r3, [sp, #28]
   11314:	e59d1018 	ldr	r1, [sp, #24]
   11318:	e4803004 	str	r3, [r0], #4
   1131c:	eb004d1b 	bl	24790 <strcpy>
   11320:	e59f305c 	ldr	r3, [pc, #92]	; 11384 <__assert_fail_base+0x164>
   11324:	e1930f9f 	ldrex	r0, [r3]
   11328:	e1832f94 	strex	r2, r4, [r3]
   1132c:	e3520000 	cmp	r2, #0
   11330:	1afffffb 	bne	11324 <__assert_fail_base+0x104>
   11334:	e3500000 	cmp	r0, #0
   11338:	ee070fba 	mcr	15, 0, r0, cr7, cr10, {5}
   1133c:	0a000001 	beq	11348 <__assert_fail_base+0x128>
   11340:	e5901000 	ldr	r1, [r0]
   11344:	eb005b85 	bl	28160 <__munmap>
   11348:	e59d0018 	ldr	r0, [sp, #24]
   1134c:	eb00461b 	bl	22bc0 <__cfree>
   11350:	eb0011da 	bl	15ac0 <abort>
   11354:	e59f102c 	ldr	r1, [pc, #44]	; 11388 <__assert_fail_base+0x168>
   11358:	e3a02012 	mov	r2, #18
   1135c:	e3a00002 	mov	r0, #2
   11360:	eb00580e 	bl	273a0 <__libc_write>
   11364:	eafffff9 	b	11350 <__assert_fail_base+0x130>
   11368:	00000000 	.word	0x00000000
   1136c:	00098e78 	.word	0x00098e78
   11370:	00083b84 	.word	0x00083b84
   11374:	00084378 	.word	0x00084378
   11378:	00086efc 	.word	0x00086efc
   1137c:	000989c8 	.word	0x000989c8
   11380:	00098e80 	.word	0x00098e80
   11384:	000996c4 	.word	0x000996c4
   11388:	00071ab4 	.word	0x00071ab4

0001138c <__assert_fail>:
   1138c:	e92d4080 	push	{r7, lr}
   11390:	e24dd008 	sub	sp, sp, #8
   11394:	e1a07003 	mov	r7, r3
   11398:	e1a06000 	mov	r6, r0
   1139c:	e1a05001 	mov	r5, r1
   113a0:	e1a04002 	mov	r4, r2
   113a4:	e59f101c 	ldr	r1, [pc, #28]	; 113c8 <__assert_fail+0x3c>
   113a8:	e3a02005 	mov	r2, #5
   113ac:	e59f0018 	ldr	r0, [pc, #24]	; 113cc <__assert_fail+0x40>
   113b0:	eb000006 	bl	113d0 <__dcgettext>
   113b4:	e58d7000 	str	r7, [sp]
   113b8:	e1a01006 	mov	r1, r6
   113bc:	e1a02005 	mov	r2, r5
   113c0:	e1a03004 	mov	r3, r4
   113c4:	ebffff95 	bl	11220 <__assert_fail_base>
   113c8:	00071a88 	.word	0x00071a88
   113cc:	000813d0 	.word	0x000813d0

000113d0 <__dcgettext>:
   113d0:	e52de004 	push	{lr}		; (str lr, [sp, #-4]!)
   113d4:	e24dd00c 	sub	sp, sp, #12
   113d8:	e3a03000 	mov	r3, #0
   113dc:	e58d2004 	str	r2, [sp, #4]
   113e0:	e58d3000 	str	r3, [sp]
   113e4:	e1a02003 	mov	r2, r3
   113e8:	eb00036d 	bl	121a4 <__dcigettext>
   113ec:	e28dd00c 	add	sp, sp, #12
   113f0:	e49df004 	pop	{pc}		; (ldr pc, [sp], #4)

000113f4 <plural_eval>:
   113f4:	e92d40f8 	push	{r3, r4, r5, r6, r7, lr}
   113f8:	e1a05000 	mov	r5, r0
   113fc:	e1a04001 	mov	r4, r1
   11400:	e5953000 	ldr	r3, [r5]
   11404:	e3530003 	cmp	r3, #3
   11408:	979ff103 	ldrls	pc, [pc, r3, lsl #2]
   1140c:	ea000043 	b	11520 <plural_eval+0x12c>
   11410:	00011488 	.word	0x00011488
   11414:	00011470 	.word	0x00011470
   11418:	00011440 	.word	0x00011440
   1141c:	00011420 	.word	0x00011420
   11420:	e5950008 	ldr	r0, [r5, #8]
   11424:	e1a01004 	mov	r1, r4
   11428:	ebfffff1 	bl	113f4 <plural_eval>
   1142c:	e3500000 	cmp	r0, #0
   11430:	13a00003 	movne	r0, #3
   11434:	03a00004 	moveq	r0, #4
   11438:	e7955100 	ldr	r5, [r5, r0, lsl #2]
   1143c:	eaffffef 	b	11400 <plural_eval+0xc>
   11440:	e5950008 	ldr	r0, [r5, #8]
   11444:	e1a01004 	mov	r1, r4
   11448:	ebffffe9 	bl	113f4 <plural_eval>
   1144c:	e5956004 	ldr	r6, [r5, #4]
   11450:	e356000f 	cmp	r6, #15
   11454:	e1a07000 	mov	r7, r0
   11458:	0a000013 	beq	114ac <plural_eval+0xb8>
   1145c:	e356000e 	cmp	r6, #14
   11460:	1a00001b 	bne	114d4 <plural_eval+0xe0>
   11464:	e3500000 	cmp	r0, #0
   11468:	1a000013 	bne	114bc <plural_eval+0xc8>
   1146c:	e8bd80f8 	pop	{r3, r4, r5, r6, r7, pc}
   11470:	e5950008 	ldr	r0, [r5, #8]
   11474:	e1a01004 	mov	r1, r4
   11478:	ebffffdd 	bl	113f4 <plural_eval>
   1147c:	e16f0f10 	clz	r0, r0
   11480:	e1a002a0 	lsr	r0, r0, #5
   11484:	e8bd80f8 	pop	{r3, r4, r5, r6, r7, pc}
   11488:	e5953004 	ldr	r3, [r5, #4]
   1148c:	e3530000 	cmp	r3, #0
   11490:	0a000003 	beq	114a4 <plural_eval+0xb0>
   11494:	e3530001 	cmp	r3, #1
   11498:	1a000020 	bne	11520 <plural_eval+0x12c>
   1149c:	e5950008 	ldr	r0, [r5, #8]
   114a0:	e8bd80f8 	pop	{r3, r4, r5, r6, r7, pc}
   114a4:	e1a00004 	mov	r0, r4
   114a8:	e8bd80f8 	pop	{r3, r4, r5, r6, r7, pc}
   114ac:	e3500000 	cmp	r0, #0
   114b0:	0a000001 	beq	114bc <plural_eval+0xc8>
   114b4:	e3a00001 	mov	r0, #1
   114b8:	e8bd80f8 	pop	{r3, r4, r5, r6, r7, pc}
   114bc:	e595000c 	ldr	r0, [r5, #12]
   114c0:	e1a01004 	mov	r1, r4
   114c4:	ebffffca 	bl	113f4 <plural_eval>
   114c8:	e2900000 	adds	r0, r0, #0
   114cc:	13a00001 	movne	r0, #1
   114d0:	e8bd80f8 	pop	{r3, r4, r5, r6, r7, pc}
   114d4:	e1a01004 	mov	r1, r4
   114d8:	e595000c 	ldr	r0, [r5, #12]
   114dc:	ebffffc4 	bl	113f4 <plural_eval>
   114e0:	e2466003 	sub	r6, r6, #3
   114e4:	e1a01000 	mov	r1, r0
   114e8:	e356000a 	cmp	r6, #10
   114ec:	979ff106 	ldrls	pc, [pc, r6, lsl #2]
   114f0:	ea00000a 	b	11520 <plural_eval+0x12c>
   114f4:	000115b0 	.word	0x000115b0
   114f8:	000115a4 	.word	0x000115a4
   114fc:	00011594 	.word	0x00011594
   11500:	0001158c 	.word	0x0001158c
   11504:	00011584 	.word	0x00011584
   11508:	00011574 	.word	0x00011574
   1150c:	00011564 	.word	0x00011564
   11510:	00011554 	.word	0x00011554
   11514:	00011544 	.word	0x00011544
   11518:	00011534 	.word	0x00011534
   1151c:	00011528 	.word	0x00011528
   11520:	e3a00000 	mov	r0, #0
   11524:	e8bd80f8 	pop	{r3, r4, r5, r6, r7, pc}
   11528:	e0570000 	subs	r0, r7, r0
   1152c:	13a00001 	movne	r0, #1
   11530:	e8bd80f8 	pop	{r3, r4, r5, r6, r7, pc}
   11534:	e0600007 	rsb	r0, r0, r7
   11538:	e16f0f10 	clz	r0, r0
   1153c:	e1a002a0 	lsr	r0, r0, #5
   11540:	e8bd80f8 	pop	{r3, r4, r5, r6, r7, pc}
   11544:	e1570000 	cmp	r7, r0
   11548:	33a00000 	movcc	r0, #0
   1154c:	23a00001 	movcs	r0, #1
   11550:	e8bd80f8 	pop	{r3, r4, r5, r6, r7, pc}
   11554:	e1570000 	cmp	r7, r0
   11558:	83a00000 	movhi	r0, #0
   1155c:	93a00001 	movls	r0, #1
   11560:	e8bd80f8 	pop	{r3, r4, r5, r6, r7, pc}
   11564:	e1570000 	cmp	r7, r0
   11568:	93a00000 	movls	r0, #0
   1156c:	83a00001 	movhi	r0, #1
   11570:	e8bd80f8 	pop	{r3, r4, r5, r6, r7, pc}
   11574:	e1570000 	cmp	r7, r0
   11578:	23a00000 	movcs	r0, #0
   1157c:	33a00001 	movcc	r0, #1
   11580:	e8bd80f8 	pop	{r3, r4, r5, r6, r7, pc}
   11584:	e0600007 	rsb	r0, r0, r7
   11588:	e8bd80f8 	pop	{r3, r4, r5, r6, r7, pc}
   1158c:	e0800007 	add	r0, r0, r7
   11590:	e8bd80f8 	pop	{r3, r4, r5, r6, r7, pc}
   11594:	e1a00007 	mov	r0, r7
   11598:	eb0175fe 	bl	6ed98 <__aeabi_uidivmod>
   1159c:	e1a00001 	mov	r0, r1
   115a0:	e8bd80f8 	pop	{r3, r4, r5, r6, r7, pc}
   115a4:	e1a00007 	mov	r0, r7
   115a8:	eb0175d0 	bl	6ecf0 <__aeabi_uidiv>
   115ac:	e8bd80f8 	pop	{r3, r4, r5, r6, r7, pc}
   115b0:	e0000097 	mul	r0, r7, r0
   115b4:	e8bd80f8 	pop	{r3, r4, r5, r6, r7, pc}

000115b8 <transcmp>:
   115b8:	e92d4038 	push	{r3, r4, r5, lr}
   115bc:	e1a05000 	mov	r5, r0
   115c0:	e5903010 	ldr	r3, [r0, #16]
   115c4:	e1a04001 	mov	r4, r1
   115c8:	e3530000 	cmp	r3, #0
   115cc:	e5913010 	ldr	r3, [r1, #16]
   115d0:	1280001c 	addne	r0, r0, #28
   115d4:	0595001c 	ldreq	r0, [r5, #28]
   115d8:	e3530000 	cmp	r3, #0
   115dc:	1281101c 	addne	r1, r1, #28
   115e0:	0594101c 	ldreq	r1, [r4, #28]
   115e4:	eb004c59 	bl	24750 <strcmp>
   115e8:	e3500000 	cmp	r0, #0
   115ec:	18bd8038 	popne	{r3, r4, r5, pc}
   115f0:	e5950000 	ldr	r0, [r5]
   115f4:	e5941000 	ldr	r1, [r4]
   115f8:	eb004c54 	bl	24750 <strcmp>
   115fc:	e3500000 	cmp	r0, #0
   11600:	18bd8038 	popne	{r3, r4, r5, pc}
   11604:	e5950008 	ldr	r0, [r5, #8]
   11608:	e5941008 	ldr	r1, [r4, #8]
   1160c:	eb004c4f 	bl	24750 <strcmp>
   11610:	e3500000 	cmp	r0, #0
   11614:	05953004 	ldreq	r3, [r5, #4]
   11618:	05940004 	ldreq	r0, [r4, #4]
   1161c:	00600003 	rsbeq	r0, r0, r3
   11620:	e8bd8038 	pop	{r3, r4, r5, pc}

00011624 <plural_lookup.isra.1>:
   11624:	e92d4070 	push	{r4, r5, r6, lr}
   11628:	e1a04000 	mov	r4, r0
   1162c:	e5900060 	ldr	r0, [r0, #96]	; 0x60
   11630:	e1a06002 	mov	r6, r2
   11634:	e1a05003 	mov	r5, r3
   11638:	ebffff6d 	bl	113f4 <plural_eval>
   1163c:	e5944064 	ldr	r4, [r4, #100]	; 0x64
   11640:	e0865005 	add	r5, r6, r5
   11644:	e1a0c006 	mov	ip, r6
   11648:	e1500004 	cmp	r0, r4
   1164c:	31a04000 	movcc	r4, r0
   11650:	23a04000 	movcs	r4, #0
   11654:	ea000004 	b	1166c <plural_lookup.isra.1+0x48>
   11658:	eb0052d0 	bl	261a0 <__rawmemchr>
   1165c:	e2444001 	sub	r4, r4, #1
   11660:	e280c001 	add	ip, r0, #1
   11664:	e15c0005 	cmp	ip, r5
   11668:	2a000005 	bcs	11684 <plural_lookup.isra.1+0x60>
   1166c:	e3a01000 	mov	r1, #0
   11670:	e1540001 	cmp	r4, r1
   11674:	e1a0000c 	mov	r0, ip
   11678:	1afffff6 	bne	11658 <plural_lookup.isra.1+0x34>
   1167c:	e1a0000c 	mov	r0, ip
   11680:	e8bd8070 	pop	{r4, r5, r6, pc}
   11684:	e1a0c006 	mov	ip, r6
   11688:	e1a0000c 	mov	r0, ip
   1168c:	e8bd8070 	pop	{r4, r5, r6, pc}

00011690 <_nl_find_msg>:
   11690:	e92d4ff0 	push	{r4, r5, r6, r7, r8, r9, sl, fp, lr}
   11694:	e1a08002 	mov	r8, r2
   11698:	e28db020 	add	fp, sp, #32
   1169c:	e24dd03c 	sub	sp, sp, #60	; 0x3c
   116a0:	e5902004 	ldr	r2, [r0, #4]
   116a4:	e50b0048 	str	r0, [fp, #-72]	; 0xffffffb8
   116a8:	e3520000 	cmp	r2, #0
   116ac:	e50b304c 	str	r3, [fp, #-76]	; 0xffffffb4
   116b0:	e50b1050 	str	r1, [fp, #-80]	; 0xffffffb0
   116b4:	da0000dc 	ble	11a2c <_nl_find_msg+0x39c>
   116b8:	e51b3048 	ldr	r3, [fp, #-72]	; 0xffffffb8
   116bc:	e5936008 	ldr	r6, [r3, #8]
   116c0:	e3560000 	cmp	r6, #0
   116c4:	0a0000a7 	beq	11968 <_nl_find_msg+0x2d8>
   116c8:	e5963030 	ldr	r3, [r6, #48]	; 0x30
   116cc:	e5967014 	ldr	r7, [r6, #20]
   116d0:	e3530000 	cmp	r3, #0
   116d4:	0a0000a6 	beq	11974 <_nl_find_msg+0x2e4>
   116d8:	e1a00008 	mov	r0, r8
   116dc:	eb004ccf 	bl	24a20 <strlen>
   116e0:	e1a09000 	mov	r9, r0
   116e4:	e1a00008 	mov	r0, r8
   116e8:	eb0010e4 	bl	15a80 <__hash_string>
   116ec:	e596402c 	ldr	r4, [r6, #44]	; 0x2c
   116f0:	e1a01004 	mov	r1, r4
   116f4:	e1a0a000 	mov	sl, r0
   116f8:	eb0175a6 	bl	6ed98 <__aeabi_uidivmod>
   116fc:	e1a0000a 	mov	r0, sl
   11700:	e1a05001 	mov	r5, r1
   11704:	e2441002 	sub	r1, r4, #2
   11708:	eb0175a2 	bl	6ed98 <__aeabi_uidivmod>
   1170c:	e5962034 	ldr	r2, [r6, #52]	; 0x34
   11710:	e5963030 	ldr	r3, [r6, #48]	; 0x30
   11714:	e1a00008 	mov	r0, r8
   11718:	e1a08002 	mov	r8, r2
   1171c:	e1a02000 	mov	r2, r0
   11720:	e2811001 	add	r1, r1, #1
   11724:	e061a004 	rsb	sl, r1, r4
   11728:	e50b1038 	str	r1, [fp, #-56]	; 0xffffffc8
   1172c:	e0641001 	rsb	r1, r4, r1
   11730:	e50b103c 	str	r1, [fp, #-60]	; 0xffffffc4
   11734:	e1a0100a 	mov	r1, sl
   11738:	e1a0a009 	mov	sl, r9
   1173c:	e1a09003 	mov	r9, r3
   11740:	e1a03001 	mov	r3, r1
   11744:	e3580000 	cmp	r8, #0
   11748:	e7994105 	ldr	r4, [r9, r5, lsl #2]
   1174c:	16bf4f34 	revne	r4, r4
   11750:	e3540000 	cmp	r4, #0
   11754:	0a000083 	beq	11968 <_nl_find_msg+0x2d8>
   11758:	e2444001 	sub	r4, r4, #1
   1175c:	e1570004 	cmp	r7, r4
   11760:	9a00001b 	bls	117d4 <_nl_find_msg+0x144>
   11764:	e596100c 	ldr	r1, [r6, #12]
   11768:	e3510000 	cmp	r1, #0
   1176c:	e5961018 	ldr	r1, [r6, #24]
   11770:	e0810184 	add	r0, r1, r4, lsl #3
   11774:	e7911184 	ldr	r1, [r1, r4, lsl #3]
   11778:	0a00006c 	beq	11930 <_nl_find_msg+0x2a0>
   1177c:	e6bf1f31 	rev	r1, r1
   11780:	e15a0001 	cmp	sl, r1
   11784:	8a00000d 	bhi	117c0 <_nl_find_msg+0x130>
   11788:	e5900004 	ldr	r0, [r0, #4]
   1178c:	e596c000 	ldr	ip, [r6]
   11790:	e6bf1f30 	rev	r1, r0
   11794:	e1a00002 	mov	r0, r2
   11798:	e08c1001 	add	r1, ip, r1
   1179c:	e50b3044 	str	r3, [fp, #-68]	; 0xffffffbc
   117a0:	e50b2040 	str	r2, [fp, #-64]	; 0xffffffc0
   117a4:	eb004be9 	bl	24750 <strcmp>
   117a8:	e51b2040 	ldr	r2, [fp, #-64]	; 0xffffffc0
   117ac:	e51b3044 	ldr	r3, [fp, #-68]	; 0xffffffbc
   117b0:	e16f0f10 	clz	r0, r0
   117b4:	e1a002a0 	lsr	r0, r0, #5
   117b8:	e3500000 	cmp	r0, #0
   117bc:	1a000015 	bne	11818 <_nl_find_msg+0x188>
   117c0:	e1550003 	cmp	r5, r3
   117c4:	251b103c 	ldrcs	r1, [fp, #-60]	; 0xffffffc4
   117c8:	351b1038 	ldrcc	r1, [fp, #-56]	; 0xffffffc8
   117cc:	e0855001 	add	r5, r5, r1
   117d0:	eaffffdb 	b	11744 <_nl_find_msg+0xb4>
   117d4:	e5961024 	ldr	r1, [r6, #36]	; 0x24
   117d8:	e0670004 	rsb	r0, r7, r4
   117dc:	e791c180 	ldr	ip, [r1, r0, lsl #3]
   117e0:	e0811180 	add	r1, r1, r0, lsl #3
   117e4:	e15a000c 	cmp	sl, ip
   117e8:	2afffff4 	bcs	117c0 <_nl_find_msg+0x130>
   117ec:	e1a00002 	mov	r0, r2
   117f0:	e5911004 	ldr	r1, [r1, #4]
   117f4:	e50b3044 	str	r3, [fp, #-68]	; 0xffffffbc
   117f8:	e50b2040 	str	r2, [fp, #-64]	; 0xffffffc0
   117fc:	eb004bd3 	bl	24750 <strcmp>
   11800:	e51b3044 	ldr	r3, [fp, #-68]	; 0xffffffbc
   11804:	e51b2040 	ldr	r2, [fp, #-64]	; 0xffffffc0
   11808:	e16f0f10 	clz	r0, r0
   1180c:	e1a002a0 	lsr	r0, r0, #5
   11810:	e3500000 	cmp	r0, #0
   11814:	0affffe9 	beq	117c0 <_nl_find_msg+0x130>
   11818:	e1540007 	cmp	r4, r7
   1181c:	2a00006f 	bcs	119e0 <_nl_find_msg+0x350>
   11820:	e596200c 	ldr	r2, [r6, #12]
   11824:	e5963000 	ldr	r3, [r6]
   11828:	e3520000 	cmp	r2, #0
   1182c:	e596201c 	ldr	r2, [r6, #28]
   11830:	e0821184 	add	r1, r2, r4, lsl #3
   11834:	e792a184 	ldr	sl, [r2, r4, lsl #3]
   11838:	e5918004 	ldr	r8, [r1, #4]
   1183c:	0a000076 	beq	11a1c <_nl_find_msg+0x38c>
   11840:	e6bfaf3a 	rev	sl, sl
   11844:	e6bf8f38 	rev	r8, r8
   11848:	e0838008 	add	r8, r3, r8
   1184c:	e28a3001 	add	r3, sl, #1
   11850:	e50b3038 	str	r3, [fp, #-56]	; 0xffffffc8
   11854:	e51b304c 	ldr	r3, [fp, #-76]	; 0xffffffb4
   11858:	e3530000 	cmp	r3, #0
   1185c:	0a000068 	beq	11a04 <_nl_find_msg+0x374>
   11860:	e51b3050 	ldr	r3, [fp, #-80]	; 0xffffffb0
   11864:	e3530000 	cmp	r3, #0
   11868:	0a00009b 	beq	11adc <_nl_find_msg+0x44c>
   1186c:	e5939008 	ldr	r9, [r3, #8]
   11870:	e3590000 	cmp	r9, #0
   11874:	0a000098 	beq	11adc <_nl_find_msg+0x44c>
   11878:	e59f38f4 	ldr	r3, [pc, #2292]	; 12174 <_nl_find_msg+0xae4>
   1187c:	e3530000 	cmp	r3, #0
   11880:	0a000001 	beq	1188c <_nl_find_msg+0x1fc>
   11884:	e2860040 	add	r0, r6, #64	; 0x40
   11888:	e1a00000 	nop			; (mov r0, r0)
   1188c:	e596503c 	ldr	r5, [r6, #60]	; 0x3c
   11890:	e3550000 	cmp	r5, #0
   11894:	0a000069 	beq	11a40 <_nl_find_msg+0x3b0>
   11898:	e0853085 	add	r3, r5, r5, lsl #1
   1189c:	e5962038 	ldr	r2, [r6, #56]	; 0x38
   118a0:	e0823103 	add	r3, r2, r3, lsl #2
   118a4:	ea000001 	b	118b0 <_nl_find_msg+0x220>
   118a8:	e3550000 	cmp	r5, #0
   118ac:	0a000063 	beq	11a40 <_nl_find_msg+0x3b0>
   118b0:	e513000c 	ldr	r0, [r3, #-12]
   118b4:	e1a01009 	mov	r1, r9
   118b8:	e243a00c 	sub	sl, r3, #12
   118bc:	eb004ba3 	bl	24750 <strcmp>
   118c0:	e2455001 	sub	r5, r5, #1
   118c4:	e1a0300a 	mov	r3, sl
   118c8:	e3500000 	cmp	r0, #0
   118cc:	1afffff5 	bne	118a8 <_nl_find_msg+0x218>
   118d0:	e59f38a0 	ldr	r3, [pc, #2208]	; 12178 <_nl_find_msg+0xae8>
   118d4:	e1a0500a 	mov	r5, sl
   118d8:	e3530000 	cmp	r3, #0
   118dc:	e50b303c 	str	r3, [fp, #-60]	; 0xffffffc4
   118e0:	0a000001 	beq	118ec <_nl_find_msg+0x25c>
   118e4:	e2860040 	add	r0, r6, #64	; 0x40
   118e8:	e1a00000 	nop			; (mov r0, r0)
   118ec:	e3550000 	cmp	r5, #0
   118f0:	0a000057 	beq	11a54 <_nl_find_msg+0x3c4>
   118f4:	e5953004 	ldr	r3, [r5, #4]
   118f8:	e3730001 	cmn	r3, #1
   118fc:	0a000040 	beq	11a04 <_nl_find_msg+0x374>
   11900:	e5953008 	ldr	r3, [r5, #8]
   11904:	e3530000 	cmp	r3, #0
   11908:	0a00008f 	beq	11b4c <_nl_find_msg+0x4bc>
   1190c:	e3730001 	cmn	r3, #1
   11910:	0a000080 	beq	11b18 <_nl_find_msg+0x488>
   11914:	e7933104 	ldr	r3, [r3, r4, lsl #2]
   11918:	e3530000 	cmp	r3, #0
   1191c:	0a000131 	beq	11de8 <_nl_find_msg+0x758>
   11920:	e5932000 	ldr	r2, [r3]
   11924:	e2838004 	add	r8, r3, #4
   11928:	e50b2038 	str	r2, [fp, #-56]	; 0xffffffc8
   1192c:	ea000034 	b	11a04 <_nl_find_msg+0x374>
   11930:	e15a0001 	cmp	sl, r1
   11934:	8affffa1 	bhi	117c0 <_nl_find_msg+0x130>
   11938:	e5901004 	ldr	r1, [r0, #4]
   1193c:	e596c000 	ldr	ip, [r6]
   11940:	eaffff93 	b	11794 <_nl_find_msg+0x104>
   11944:	e3700001 	cmn	r0, #1
   11948:	0a0001fd 	beq	12144 <_nl_find_msg+0xab4>
   1194c:	e51b303c 	ldr	r3, [fp, #-60]	; 0xffffffc4
   11950:	e3530000 	cmp	r3, #0
   11954:	0a000001 	beq	11960 <_nl_find_msg+0x2d0>
   11958:	e2860040 	add	r0, r6, #64	; 0x40
   1195c:	e1a00000 	nop			; (mov r0, r0)
   11960:	e1a0000a 	mov	r0, sl
   11964:	eb004495 	bl	22bc0 <__cfree>
   11968:	e3a00000 	mov	r0, #0
   1196c:	e24bd020 	sub	sp, fp, #32
   11970:	e8bd8ff0 	pop	{r4, r5, r6, r7, r8, r9, sl, fp, pc}
   11974:	e1a0a006 	mov	sl, r6
   11978:	e50b703c 	str	r7, [fp, #-60]	; 0xffffffc4
   1197c:	e1a06003 	mov	r6, r3
   11980:	e50b8038 	str	r8, [fp, #-56]	; 0xffffffc8
   11984:	ea000001 	b	11990 <_nl_find_msg+0x300>
   11988:	0a000029 	beq	11a34 <_nl_find_msg+0x3a4>
   1198c:	e2846001 	add	r6, r4, #1
   11990:	e1570006 	cmp	r7, r6
   11994:	9afffff3 	bls	11968 <_nl_find_msg+0x2d8>
   11998:	e59a5000 	ldr	r5, [sl]
   1199c:	e59a900c 	ldr	r9, [sl, #12]
   119a0:	e59a8018 	ldr	r8, [sl, #24]
   119a4:	e0874006 	add	r4, r7, r6
   119a8:	e3590000 	cmp	r9, #0
   119ac:	e1a040a4 	lsr	r4, r4, #1
   119b0:	e0883184 	add	r3, r8, r4, lsl #3
   119b4:	e5931004 	ldr	r1, [r3, #4]
   119b8:	16bf1f31 	revne	r1, r1
   119bc:	e51b0038 	ldr	r0, [fp, #-56]	; 0xffffffc8
   119c0:	e0851001 	add	r1, r5, r1
   119c4:	eb004b61 	bl	24750 <strcmp>
   119c8:	e3500000 	cmp	r0, #0
   119cc:	aaffffed 	bge	11988 <_nl_find_msg+0x2f8>
   119d0:	e1540006 	cmp	r4, r6
   119d4:	e1a07004 	mov	r7, r4
   119d8:	8afffff1 	bhi	119a4 <_nl_find_msg+0x314>
   119dc:	eaffffe1 	b	11968 <_nl_find_msg+0x2d8>
   119e0:	e0673004 	rsb	r3, r7, r4
   119e4:	e5962028 	ldr	r2, [r6, #40]	; 0x28
   119e8:	e0821183 	add	r1, r2, r3, lsl #3
   119ec:	e7923183 	ldr	r3, [r2, r3, lsl #3]
   119f0:	e5918004 	ldr	r8, [r1, #4]
   119f4:	e50b3038 	str	r3, [fp, #-56]	; 0xffffffc8
   119f8:	e51b304c 	ldr	r3, [fp, #-76]	; 0xffffffb4
   119fc:	e3530000 	cmp	r3, #0
   11a00:	1affff96 	bne	11860 <_nl_find_msg+0x1d0>
   11a04:	e59b3004 	ldr	r3, [fp, #4]
   11a08:	e51b2038 	ldr	r2, [fp, #-56]	; 0xffffffc8
   11a0c:	e1a00008 	mov	r0, r8
   11a10:	e5832000 	str	r2, [r3]
   11a14:	e24bd020 	sub	sp, fp, #32
   11a18:	e8bd8ff0 	pop	{r4, r5, r6, r7, r8, r9, sl, fp, pc}
   11a1c:	e28a2001 	add	r2, sl, #1
   11a20:	e50b2038 	str	r2, [fp, #-56]	; 0xffffffc8
   11a24:	e0838008 	add	r8, r3, r8
   11a28:	eafffff2 	b	119f8 <_nl_find_msg+0x368>
   11a2c:	eb000488 	bl	12c54 <_nl_load_domain>
   11a30:	eaffff20 	b	116b8 <_nl_find_msg+0x28>
   11a34:	e1a0600a 	mov	r6, sl
   11a38:	e51b703c 	ldr	r7, [fp, #-60]	; 0xffffffc4
   11a3c:	eaffff75 	b	11818 <_nl_find_msg+0x188>
   11a40:	e59f3730 	ldr	r3, [pc, #1840]	; 12178 <_nl_find_msg+0xae8>
   11a44:	e3530000 	cmp	r3, #0
   11a48:	e50b303c 	str	r3, [fp, #-60]	; 0xffffffc4
   11a4c:	13a05000 	movne	r5, #0
   11a50:	1affffa3 	bne	118e4 <_nl_find_msg+0x254>
   11a54:	e59f3720 	ldr	r3, [pc, #1824]	; 1217c <_nl_find_msg+0xaec>
   11a58:	e3530000 	cmp	r3, #0
   11a5c:	0a000001 	beq	11a68 <_nl_find_msg+0x3d8>
   11a60:	e2860040 	add	r0, r6, #64	; 0x40
   11a64:	e1a00000 	nop			; (mov r0, r0)
   11a68:	e596303c 	ldr	r3, [r6, #60]	; 0x3c
   11a6c:	e3530000 	cmp	r3, #0
   11a70:	e50b3040 	str	r3, [fp, #-64]	; 0xffffffc0
   11a74:	e5963038 	ldr	r3, [r6, #56]	; 0x38
   11a78:	050b3044 	streq	r3, [fp, #-68]	; 0xffffffbc
   11a7c:	0a000050 	beq	11bc4 <_nl_find_msg+0x534>
   11a80:	e51b2040 	ldr	r2, [fp, #-64]	; 0xffffffc0
   11a84:	e1a01003 	mov	r1, r3
   11a88:	e50b3044 	str	r3, [fp, #-68]	; 0xffffffbc
   11a8c:	e0823082 	add	r3, r2, r2, lsl #1
   11a90:	e1a0a002 	mov	sl, r2
   11a94:	e0813103 	add	r3, r1, r3, lsl #2
   11a98:	ea000001 	b	11aa4 <_nl_find_msg+0x414>
   11a9c:	e35a0000 	cmp	sl, #0
   11aa0:	0a000047 	beq	11bc4 <_nl_find_msg+0x534>
   11aa4:	e513000c 	ldr	r0, [r3, #-12]
   11aa8:	e1a01009 	mov	r1, r9
   11aac:	e243500c 	sub	r5, r3, #12
   11ab0:	eb004b26 	bl	24750 <strcmp>
   11ab4:	e24aa001 	sub	sl, sl, #1
   11ab8:	e1a03005 	mov	r3, r5
   11abc:	e3500000 	cmp	r0, #0
   11ac0:	1afffff5 	bne	11a9c <_nl_find_msg+0x40c>
   11ac4:	e51b303c 	ldr	r3, [fp, #-60]	; 0xffffffc4
   11ac8:	e3530000 	cmp	r3, #0
   11acc:	0affff88 	beq	118f4 <_nl_find_msg+0x264>
   11ad0:	e2860040 	add	r0, r6, #64	; 0x40
   11ad4:	e1a00000 	nop			; (mov r0, r0)
   11ad8:	eaffff85 	b	118f4 <_nl_find_msg+0x264>
   11adc:	e59f969c 	ldr	r9, [pc, #1692]	; 12180 <_nl_find_msg+0xaf0>
   11ae0:	e5993008 	ldr	r3, [r9, #8]
   11ae4:	e3530000 	cmp	r3, #0
   11ae8:	0a00000c 	beq	11b20 <_nl_find_msg+0x490>
   11aec:	e599200c 	ldr	r2, [r9, #12]
   11af0:	e3520000 	cmp	r2, #0
   11af4:	11a09002 	movne	r9, r2
   11af8:	1affff5e 	bne	11878 <_nl_find_msg+0x1e8>
   11afc:	e59f3680 	ldr	r3, [pc, #1664]	; 12184 <_nl_find_msg+0xaf4>
   11b00:	ebfffdc2 	bl	11210 <__aeabi_read_tp>
   11b04:	e79f3003 	ldr	r3, [pc, r3]
   11b08:	e7903003 	ldr	r3, [r0, r3]
   11b0c:	e5933000 	ldr	r3, [r3]
   11b10:	e593905c 	ldr	r9, [r3, #92]	; 0x5c
   11b14:	eaffff57 	b	11878 <_nl_find_msg+0x1e8>
   11b18:	e3e00000 	mvn	r0, #0
   11b1c:	eaffff92 	b	1196c <_nl_find_msg+0x2dc>
   11b20:	e59f0660 	ldr	r0, [pc, #1632]	; 12188 <_nl_find_msg+0xaf8>
   11b24:	eb0011e8 	bl	162cc <getenv>
   11b28:	e2501000 	subs	r1, r0, #0
   11b2c:	0a000002 	beq	11b3c <_nl_find_msg+0x4ac>
   11b30:	e5d13000 	ldrb	r3, [r1]
   11b34:	e3530000 	cmp	r3, #0
   11b38:	1a000110 	bne	11f80 <_nl_find_msg+0x8f0>
   11b3c:	e599200c 	ldr	r2, [r9, #12]
   11b40:	e3a03001 	mov	r3, #1
   11b44:	e5893008 	str	r3, [r9, #8]
   11b48:	eaffffe8 	b	11af0 <_nl_find_msg+0x460>
   11b4c:	e50b3028 	str	r3, [fp, #-40]	; 0xffffffd8
   11b50:	e59f3634 	ldr	r3, [pc, #1588]	; 1218c <_nl_find_msg+0xafc>
   11b54:	e3a02001 	mov	r2, #1
   11b58:	e1a01003 	mov	r1, r3
   11b5c:	e50b303c 	str	r3, [fp, #-60]	; 0xffffffc4
   11b60:	e1913f9f 	ldrex	r3, [r1]
   11b64:	e3530000 	cmp	r3, #0
   11b68:	1a000003 	bne	11b7c <_nl_find_msg+0x4ec>
   11b6c:	e1810f92 	strex	r0, r2, [r1]
   11b70:	e3500000 	cmp	r0, #0
   11b74:	1afffff9 	bne	11b60 <_nl_find_msg+0x4d0>
   11b78:	ee070fba 	mcr	15, 0, r0, cr7, cr10, {5}
   11b7c:	150b3028 	strne	r3, [fp, #-40]	; 0xffffffd8
   11b80:	e51b3028 	ldr	r3, [fp, #-40]	; 0xffffffd8
   11b84:	e3530000 	cmp	r3, #0
   11b88:	1a000141 	bne	12094 <_nl_find_msg+0xa04>
   11b8c:	e5953008 	ldr	r3, [r5, #8]
   11b90:	e3530000 	cmp	r3, #0
   11b94:	0a00011f 	beq	12018 <_nl_find_msg+0x988>
   11b98:	e3a03000 	mov	r3, #0
   11b9c:	e51b103c 	ldr	r1, [fp, #-60]	; 0xffffffc4
   11ba0:	ee070fba 	mcr	15, 0, r0, cr7, cr10, {5}
   11ba4:	e1912f9f 	ldrex	r2, [r1]
   11ba8:	e1810f93 	strex	r0, r3, [r1]
   11bac:	e3500000 	cmp	r0, #0
   11bb0:	1afffffb 	bne	11ba4 <_nl_find_msg+0x514>
   11bb4:	e3520001 	cmp	r2, #1
   11bb8:	ca00013a 	bgt	120a8 <_nl_find_msg+0xa18>
   11bbc:	e5953008 	ldr	r3, [r5, #8]
   11bc0:	eaffff51 	b	1190c <_nl_find_msg+0x27c>
   11bc4:	e51b3040 	ldr	r3, [fp, #-64]	; 0xffffffc0
   11bc8:	e51b0044 	ldr	r0, [fp, #-68]	; 0xffffffbc
   11bcc:	e2835001 	add	r5, r3, #1
   11bd0:	e0855085 	add	r5, r5, r5, lsl #1
   11bd4:	e1a05105 	lsl	r5, r5, #2
   11bd8:	e1a01005 	mov	r1, r5
   11bdc:	eb004421 	bl	22c68 <__libc_realloc>
   11be0:	e2502000 	subs	r2, r0, #0
   11be4:	0a000104 	beq	11ffc <_nl_find_msg+0x96c>
   11be8:	e5862038 	str	r2, [r6, #56]	; 0x38
   11bec:	e1a00009 	mov	r0, r9
   11bf0:	e50b2040 	str	r2, [fp, #-64]	; 0xffffffc0
   11bf4:	eb004b7d 	bl	249f0 <__strdup>
   11bf8:	e2503000 	subs	r3, r0, #0
   11bfc:	e1a01003 	mov	r1, r3
   11c00:	e1a0a003 	mov	sl, r3
   11c04:	0a0000fc 	beq	11ffc <_nl_find_msg+0x96c>
   11c08:	e51b2040 	ldr	r2, [fp, #-64]	; 0xffffffc0
   11c0c:	e245300c 	sub	r3, r5, #12
   11c10:	e0825003 	add	r5, r2, r3
   11c14:	e3e0e000 	mvn	lr, #0
   11c18:	e24bc028 	sub	ip, fp, #40	; 0x28
   11c1c:	e7821003 	str	r1, [r2, r3]
   11c20:	e51b0048 	ldr	r0, [fp, #-72]	; 0xffffffb8
   11c24:	e585e004 	str	lr, [r5, #4]
   11c28:	e3a03000 	mov	r3, #0
   11c2c:	e51b1050 	ldr	r1, [fp, #-80]	; 0xffffffb0
   11c30:	e59f2558 	ldr	r2, [pc, #1368]	; 12190 <_nl_find_msg+0xb00>
   11c34:	e58dc000 	str	ip, [sp]
   11c38:	ebfffe94 	bl	11690 <_nl_find_msg>
   11c3c:	e3700001 	cmn	r0, #1
   11c40:	e1a03000 	mov	r3, r0
   11c44:	0a000110 	beq	1208c <_nl_find_msg+0x9fc>
   11c48:	e3500000 	cmp	r0, #0
   11c4c:	0a00005f 	beq	11dd0 <_nl_find_msg+0x740>
   11c50:	e59f153c 	ldr	r1, [pc, #1340]	; 12194 <_nl_find_msg+0xb04>
   11c54:	eb004d14 	bl	250ac <strstr>
   11c58:	e3500000 	cmp	r0, #0
   11c5c:	0a00005b 	beq	11dd0 <_nl_find_msg+0x740>
   11c60:	e5d03008 	ldrb	r3, [r0, #8]
   11c64:	e2801008 	add	r1, r0, #8
   11c68:	e21320df 	ands	r2, r3, #223	; 0xdf
   11c6c:	0a00000c 	beq	11ca4 <_nl_find_msg+0x614>
   11c70:	e2433009 	sub	r3, r3, #9
   11c74:	e3530001 	cmp	r3, #1
   11c78:	9a000133 	bls	1214c <_nl_find_msg+0xabc>
   11c7c:	e1a00001 	mov	r0, r1
   11c80:	e3a02000 	mov	r2, #0
   11c84:	ea000001 	b	11c90 <_nl_find_msg+0x600>
   11c88:	e35c0001 	cmp	ip, #1
   11c8c:	9a000004 	bls	11ca4 <_nl_find_msg+0x614>
   11c90:	e5f03001 	ldrb	r3, [r0, #1]!
   11c94:	e2822001 	add	r2, r2, #1
   11c98:	e31300df 	tst	r3, #223	; 0xdf
   11c9c:	e243c009 	sub	ip, r3, #9
   11ca0:	1afffff8 	bne	11c88 <_nl_find_msg+0x5f8>
   11ca4:	e282300f 	add	r3, r2, #15
   11ca8:	e3c33007 	bic	r3, r3, #7
   11cac:	e04dd003 	sub	sp, sp, r3
   11cb0:	e28d9008 	add	r9, sp, #8
   11cb4:	e1a00009 	mov	r0, r9
   11cb8:	eb005054 	bl	25e10 <__mempcpy>
   11cbc:	e3a0e000 	mov	lr, #0
   11cc0:	e1a0300a 	mov	r3, sl
   11cc4:	e1a0200a 	mov	r2, sl
   11cc8:	e5c0e000 	strb	lr, [r0]
   11ccc:	ea000001 	b	11cd8 <_nl_find_msg+0x648>
   11cd0:	e351002f 	cmp	r1, #47	; 0x2f
   11cd4:	028ee001 	addeq	lr, lr, #1
   11cd8:	e1a00003 	mov	r0, r3
   11cdc:	e4d31001 	ldrb	r1, [r3], #1
   11ce0:	e3510000 	cmp	r1, #0
   11ce4:	1afffff9 	bne	11cd0 <_nl_find_msg+0x640>
   11ce8:	e06a1000 	rsb	r1, sl, r0
   11cec:	e5da3000 	ldrb	r3, [sl]
   11cf0:	e2811019 	add	r1, r1, #25
   11cf4:	e3c11007 	bic	r1, r1, #7
   11cf8:	e04dd001 	sub	sp, sp, r1
   11cfc:	e28d1008 	add	r1, sp, #8
   11d00:	e3530000 	cmp	r3, #0
   11d04:	e1a00001 	mov	r0, r1
   11d08:	e50b1040 	str	r1, [fp, #-64]	; 0xffffffc0
   11d0c:	0a0000e3 	beq	120a0 <_nl_find_msg+0xa10>
   11d10:	e59f1480 	ldr	r1, [pc, #1152]	; 12198 <_nl_find_msg+0xb08>
   11d14:	e591c03c 	ldr	ip, [r1, #60]	; 0x3c
   11d18:	e79c1103 	ldr	r1, [ip, r3, lsl #2]
   11d1c:	e5f23001 	ldrb	r3, [r2, #1]!
   11d20:	e4c01001 	strb	r1, [r0], #1
   11d24:	e3530000 	cmp	r3, #0
   11d28:	1afffffa 	bne	11d18 <_nl_find_msg+0x688>
   11d2c:	e35e0001 	cmp	lr, #1
   11d30:	9a00009f 	bls	11fb4 <_nl_find_msg+0x924>
   11d34:	e3a03000 	mov	r3, #0
   11d38:	e5c03000 	strb	r3, [r0]
   11d3c:	e1a02009 	mov	r2, r9
   11d40:	e1a00003 	mov	r0, r3
   11d44:	e1a03009 	mov	r3, r9
   11d48:	ea000001 	b	11d54 <_nl_find_msg+0x6c4>
   11d4c:	e351002f 	cmp	r1, #47	; 0x2f
   11d50:	02800001 	addeq	r0, r0, #1
   11d54:	e1a0c003 	mov	ip, r3
   11d58:	e4d31001 	ldrb	r1, [r3], #1
   11d5c:	e3510000 	cmp	r1, #0
   11d60:	1afffff9 	bne	11d4c <_nl_find_msg+0x6bc>
   11d64:	e069100c 	rsb	r1, r9, ip
   11d68:	e5d93000 	ldrb	r3, [r9]
   11d6c:	e2811011 	add	r1, r1, #17
   11d70:	e3c11007 	bic	r1, r1, #7
   11d74:	e04dd001 	sub	sp, sp, r1
   11d78:	e3530000 	cmp	r3, #0
   11d7c:	e28d9008 	add	r9, sp, #8
   11d80:	0a0000d0 	beq	120c8 <_nl_find_msg+0xa38>
   11d84:	e59f140c 	ldr	r1, [pc, #1036]	; 12198 <_nl_find_msg+0xb08>
   11d88:	e1a0c009 	mov	ip, r9
   11d8c:	e591e03c 	ldr	lr, [r1, #60]	; 0x3c
   11d90:	e79e1103 	ldr	r1, [lr, r3, lsl #2]
   11d94:	e5f23001 	ldrb	r3, [r2, #1]!
   11d98:	e4cc1001 	strb	r1, [ip], #1
   11d9c:	e3530000 	cmp	r3, #0
   11da0:	1afffffa 	bne	11d90 <_nl_find_msg+0x700>
   11da4:	e3500001 	cmp	r0, #1
   11da8:	9a00008c 	bls	11fe0 <_nl_find_msg+0x950>
   11dac:	e3a0e000 	mov	lr, #0
   11db0:	e51b0040 	ldr	r0, [fp, #-64]	; 0xffffffc0
   11db4:	e1a01009 	mov	r1, r9
   11db8:	e2852004 	add	r2, r5, #4
   11dbc:	e3a03001 	mov	r3, #1
   11dc0:	e5cce000 	strb	lr, [ip]
   11dc4:	eb006355 	bl	2ab20 <__gconv_open>
   11dc8:	e3500000 	cmp	r0, #0
   11dcc:	1afffedc 	bne	11944 <_nl_find_msg+0x2b4>
   11dd0:	e596303c 	ldr	r3, [r6, #60]	; 0x3c
   11dd4:	e3a02000 	mov	r2, #0
   11dd8:	e2833001 	add	r3, r3, #1
   11ddc:	e5852008 	str	r2, [r5, #8]
   11de0:	e586303c 	str	r3, [r6, #60]	; 0x3c
   11de4:	eaffff36 	b	11ac4 <_nl_find_msg+0x434>
   11de8:	e50b3028 	str	r3, [fp, #-40]	; 0xffffffd8
   11dec:	e59f3398 	ldr	r3, [pc, #920]	; 1218c <_nl_find_msg+0xafc>
   11df0:	e3a02001 	mov	r2, #1
   11df4:	e1a01003 	mov	r1, r3
   11df8:	e50b303c 	str	r3, [fp, #-60]	; 0xffffffc4
   11dfc:	e1913f9f 	ldrex	r3, [r1]
   11e00:	e3530000 	cmp	r3, #0
   11e04:	1a000003 	bne	11e18 <_nl_find_msg+0x788>
   11e08:	e1810f92 	strex	r0, r2, [r1]
   11e0c:	e3500000 	cmp	r0, #0
   11e10:	1afffff9 	bne	11dfc <_nl_find_msg+0x76c>
   11e14:	ee070fba 	mcr	15, 0, r0, cr7, cr10, {5}
   11e18:	150b3028 	strne	r3, [fp, #-40]	; 0xffffffd8
   11e1c:	e51b3028 	ldr	r3, [fp, #-40]	; 0xffffffd8
   11e20:	e3530000 	cmp	r3, #0
   11e24:	1a000085 	bne	12040 <_nl_find_msg+0x9b0>
   11e28:	e59f9350 	ldr	r9, [pc, #848]	; 12180 <_nl_find_msg+0xaf0>
   11e2c:	e3a07000 	mov	r7, #0
   11e30:	e1a06009 	mov	r6, r9
   11e34:	e5992014 	ldr	r2, [r9, #20]
   11e38:	e5993018 	ldr	r3, [r9, #24]
   11e3c:	e2822004 	add	r2, r2, #4
   11e40:	e50b8030 	str	r8, [fp, #-48]	; 0xffffffd0
   11e44:	e50b202c 	str	r2, [fp, #-44]	; 0xffffffd4
   11e48:	e50b4040 	str	r4, [fp, #-64]	; 0xffffffc0
   11e4c:	ea000013 	b	11ea0 <_nl_find_msg+0x810>
   11e50:	e3570000 	cmp	r7, #0
   11e54:	e2877001 	add	r7, r7, #1
   11e58:	0a000025 	beq	11ef4 <_nl_find_msg+0x864>
   11e5c:	e0673407 	rsb	r3, r7, r7, lsl #8
   11e60:	e599a004 	ldr	sl, [r9, #4]
   11e64:	e1a04203 	lsl	r4, r3, #4
   11e68:	e1a01004 	mov	r1, r4
   11e6c:	e1a0000a 	mov	r0, sl
   11e70:	e5894018 	str	r4, [r9, #24]
   11e74:	eb00437b 	bl	22c68 <__libc_realloc>
   11e78:	e59f1300 	ldr	r1, [pc, #768]	; 12180 <_nl_find_msg+0xaf0>
   11e7c:	e2443004 	sub	r3, r4, #4
   11e80:	e3500000 	cmp	r0, #0
   11e84:	0a000025 	beq	11f20 <_nl_find_msg+0x890>
   11e88:	e5860004 	str	r0, [r6, #4]
   11e8c:	e2802004 	add	r2, r0, #4
   11e90:	e2800008 	add	r0, r0, #8
   11e94:	e5893018 	str	r3, [r9, #24]
   11e98:	e5892014 	str	r2, [r9, #20]
   11e9c:	e50b002c 	str	r0, [fp, #-44]	; 0xffffffd4
   11ea0:	e3530003 	cmp	r3, #3
   11ea4:	9affffe9 	bls	11e50 <_nl_find_msg+0x7c0>
   11ea8:	e51b102c 	ldr	r1, [fp, #-44]	; 0xffffffd4
   11eac:	e2433004 	sub	r3, r3, #4
   11eb0:	e0813003 	add	r3, r1, r3
   11eb4:	e5950004 	ldr	r0, [r5, #4]
   11eb8:	e58d3000 	str	r3, [sp]
   11ebc:	e24b3028 	sub	r3, fp, #40	; 0x28
   11ec0:	e51b2030 	ldr	r2, [fp, #-48]	; 0xffffffd0
   11ec4:	e58d3004 	str	r3, [sp, #4]
   11ec8:	e51b3038 	ldr	r3, [fp, #-56]	; 0xffffffc8
   11ecc:	e24b1030 	sub	r1, fp, #48	; 0x30
   11ed0:	e0822003 	add	r2, r2, r3
   11ed4:	e24b302c 	sub	r3, fp, #44	; 0x2c
   11ed8:	eb006516 	bl	2b338 <__gconv>
   11edc:	e3d03004 	bics	r3, r0, #4
   11ee0:	0a00007a 	beq	120d0 <_nl_find_msg+0xa40>
   11ee4:	e3500005 	cmp	r0, #5
   11ee8:	1a000057 	bne	1204c <_nl_find_msg+0x9bc>
   11eec:	e50b8030 	str	r8, [fp, #-48]	; 0xffffffd0
   11ef0:	eaffffd6 	b	11e50 <_nl_find_msg+0x7c0>
   11ef4:	e3a00eff 	mov	r0, #4080	; 0xff0
   11ef8:	e5890018 	str	r0, [r9, #24]
   11efc:	eb00415a 	bl	2246c <__libc_malloc>
   11f00:	e3a07001 	mov	r7, #1
   11f04:	e59f3290 	ldr	r3, [pc, #656]	; 1219c <_nl_find_msg+0xb0c>
   11f08:	e3500000 	cmp	r0, #0
   11f0c:	0a000007 	beq	11f30 <_nl_find_msg+0x8a0>
   11f10:	e5962004 	ldr	r2, [r6, #4]
   11f14:	e5860004 	str	r0, [r6, #4]
   11f18:	e5802000 	str	r2, [r0]
   11f1c:	eaffffda 	b	11e8c <_nl_find_msg+0x7fc>
   11f20:	e59a3000 	ldr	r3, [sl]
   11f24:	e1a0000a 	mov	r0, sl
   11f28:	e5813004 	str	r3, [r1, #4]
   11f2c:	eb004323 	bl	22bc0 <__cfree>
   11f30:	e3a03000 	mov	r3, #0
   11f34:	e5893014 	str	r3, [r9, #20]
   11f38:	e5893018 	str	r3, [r9, #24]
   11f3c:	e51b103c 	ldr	r1, [fp, #-60]	; 0xffffffc4
   11f40:	ee070fba 	mcr	15, 0, r0, cr7, cr10, {5}
   11f44:	e1912f9f 	ldrex	r2, [r1]
   11f48:	e1810f93 	strex	r0, r3, [r1]
   11f4c:	e3500000 	cmp	r0, #0
   11f50:	1afffffb 	bne	11f44 <_nl_find_msg+0x8b4>
   11f54:	e3520001 	cmp	r2, #1
   11f58:	dafffeee 	ble	11b18 <_nl_find_msg+0x488>
   11f5c:	ebfffcab 	bl	11210 <__aeabi_read_tp>
   11f60:	e51014b8 	ldr	r1, [r0, #-1208]	; 0xfffffb48
   11f64:	e3a02001 	mov	r2, #1
   11f68:	e3811001 	orr	r1, r1, #1
   11f6c:	e59f0218 	ldr	r0, [pc, #536]	; 1218c <_nl_find_msg+0xafc>
   11f70:	e3a070f0 	mov	r7, #240	; 0xf0
   11f74:	ef000000 	svc	0x00000000
   11f78:	e3e00000 	mvn	r0, #0
   11f7c:	eafffe7a 	b	1196c <_nl_find_msg+0x2dc>
   11f80:	e50b103c 	str	r1, [fp, #-60]	; 0xffffffc4
   11f84:	eb004aa5 	bl	24a20 <strlen>
   11f88:	e280a001 	add	sl, r0, #1
   11f8c:	e1a0000a 	mov	r0, sl
   11f90:	eb004135 	bl	2246c <__libc_malloc>
   11f94:	e2505000 	subs	r5, r0, #0
   11f98:	0a000002 	beq	11fa8 <_nl_find_msg+0x918>
   11f9c:	e51b103c 	ldr	r1, [fp, #-60]	; 0xffffffc4
   11fa0:	e1a0200a 	mov	r2, sl
   11fa4:	eb004fb1 	bl	25e70 <memcpy>
   11fa8:	e1a02005 	mov	r2, r5
   11fac:	e589500c 	str	r5, [r9, #12]
   11fb0:	eafffee2 	b	11b40 <_nl_find_msg+0x4b0>
   11fb4:	e35e0000 	cmp	lr, #0
   11fb8:	e3a0302f 	mov	r3, #47	; 0x2f
   11fbc:	e5c03000 	strb	r3, [r0]
   11fc0:	12800001 	addne	r0, r0, #1
   11fc4:	1affff5a 	bne	11d34 <_nl_find_msg+0x6a4>
   11fc8:	e5c03001 	strb	r3, [r0, #1]
   11fcc:	e59f11cc 	ldr	r1, [pc, #460]	; 121a0 <_nl_find_msg+0xb10>
   11fd0:	e3a02008 	mov	r2, #8
   11fd4:	e2800002 	add	r0, r0, #2
   11fd8:	eb004f8c 	bl	25e10 <__mempcpy>
   11fdc:	eaffff54 	b	11d34 <_nl_find_msg+0x6a4>
   11fe0:	e3500000 	cmp	r0, #0
   11fe4:	e3a0302f 	mov	r3, #47	; 0x2f
   11fe8:	e5cc3000 	strb	r3, [ip]
   11fec:	05cc3001 	strbeq	r3, [ip, #1]
   11ff0:	128cc001 	addne	ip, ip, #1
   11ff4:	028cc002 	addeq	ip, ip, #2
   11ff8:	eaffff6b 	b	11dac <_nl_find_msg+0x71c>
   11ffc:	e51b303c 	ldr	r3, [fp, #-60]	; 0xffffffc4
   12000:	e3530000 	cmp	r3, #0
   12004:	0afffec3 	beq	11b18 <_nl_find_msg+0x488>
   12008:	e2860040 	add	r0, r6, #64	; 0x40
   1200c:	e1a00000 	nop			; (mov r0, r0)
   12010:	e3e00000 	mvn	r0, #0
   12014:	eafffe54 	b	1196c <_nl_find_msg+0x2dc>
   12018:	e5960020 	ldr	r0, [r6, #32]
   1201c:	e3a01004 	mov	r1, #4
   12020:	e0870000 	add	r0, r7, r0
   12024:	eb0043b8 	bl	22f0c <__calloc>
   12028:	e3500000 	cmp	r0, #0
   1202c:	e5850008 	str	r0, [r5, #8]
   12030:	1affff7c 	bne	11e28 <_nl_find_msg+0x798>
   12034:	e3e03000 	mvn	r3, #0
   12038:	e5853008 	str	r3, [r5, #8]
   1203c:	eafffed5 	b	11b98 <_nl_find_msg+0x508>
   12040:	e59f0144 	ldr	r0, [pc, #324]	; 1218c <_nl_find_msg+0xafc>
   12044:	eb005c8d 	bl	29280 <__lll_lock_wait_private>
   12048:	eaffff76 	b	11e28 <_nl_find_msg+0x798>
   1204c:	e3a03000 	mov	r3, #0
   12050:	e51b103c 	ldr	r1, [fp, #-60]	; 0xffffffc4
   12054:	ee070fba 	mcr	15, 0, r0, cr7, cr10, {5}
   12058:	e1912f9f 	ldrex	r2, [r1]
   1205c:	e1810f93 	strex	r0, r3, [r1]
   12060:	e3500000 	cmp	r0, #0
   12064:	1afffffb 	bne	12058 <_nl_find_msg+0x9c8>
   12068:	e3520001 	cmp	r2, #1
   1206c:	dafffe3d 	ble	11968 <_nl_find_msg+0x2d8>
   12070:	ebfffc66 	bl	11210 <__aeabi_read_tp>
   12074:	e51014b8 	ldr	r1, [r0, #-1208]	; 0xfffffb48
   12078:	e3a02001 	mov	r2, #1
   1207c:	e1811002 	orr	r1, r1, r2
   12080:	e59f0104 	ldr	r0, [pc, #260]	; 1218c <_nl_find_msg+0xafc>
   12084:	e3a070f0 	mov	r7, #240	; 0xf0
   12088:	ef000000 	svc	0x00000000
   1208c:	e1a00003 	mov	r0, r3
   12090:	eafffe35 	b	1196c <_nl_find_msg+0x2dc>
   12094:	e59f00f0 	ldr	r0, [pc, #240]	; 1218c <_nl_find_msg+0xafc>
   12098:	eb005c78 	bl	29280 <__lll_lock_wait_private>
   1209c:	eafffeba 	b	11b8c <_nl_find_msg+0x4fc>
   120a0:	e51b0040 	ldr	r0, [fp, #-64]	; 0xffffffc0
   120a4:	eaffff20 	b	11d2c <_nl_find_msg+0x69c>
   120a8:	ebfffc58 	bl	11210 <__aeabi_read_tp>
   120ac:	e51014b8 	ldr	r1, [r0, #-1208]	; 0xfffffb48
   120b0:	e3a02001 	mov	r2, #1
   120b4:	e3811001 	orr	r1, r1, #1
   120b8:	e59f00cc 	ldr	r0, [pc, #204]	; 1218c <_nl_find_msg+0xafc>
   120bc:	e3a070f0 	mov	r7, #240	; 0xf0
   120c0:	ef000000 	svc	0x00000000
   120c4:	eafffebc 	b	11bbc <_nl_find_msg+0x52c>
   120c8:	e1a0c009 	mov	ip, r9
   120cc:	eaffff34 	b	11da4 <_nl_find_msg+0x714>
   120d0:	e5992014 	ldr	r2, [r9, #20]
   120d4:	e51b102c 	ldr	r1, [fp, #-44]	; 0xffffffd4
   120d8:	e5950008 	ldr	r0, [r5, #8]
   120dc:	e51b4040 	ldr	r4, [fp, #-64]	; 0xffffffc0
   120e0:	e0621001 	rsb	r1, r2, r1
   120e4:	e2411004 	sub	r1, r1, #4
   120e8:	e5821000 	str	r1, [r2]
   120ec:	e7802104 	str	r2, [r0, r4, lsl #2]
   120f0:	e51b102c 	ldr	r1, [fp, #-44]	; 0xffffffd4
   120f4:	e5990018 	ldr	r0, [r9, #24]
   120f8:	e0612002 	rsb	r2, r1, r2
   120fc:	e0822000 	add	r2, r2, r0
   12100:	e2020003 	and	r0, r2, #3
   12104:	e1a04104 	lsl	r4, r4, #2
   12108:	e0811000 	add	r1, r1, r0
   1210c:	e3c22003 	bic	r2, r2, #3
   12110:	e5891014 	str	r1, [r9, #20]
   12114:	e5892018 	str	r2, [r9, #24]
   12118:	e51b103c 	ldr	r1, [fp, #-60]	; 0xffffffc4
   1211c:	ee070fba 	mcr	15, 0, r0, cr7, cr10, {5}
   12120:	e1912f9f 	ldrex	r2, [r1]
   12124:	e1810f93 	strex	r0, r3, [r1]
   12128:	e3500000 	cmp	r0, #0
   1212c:	1afffffb 	bne	12120 <_nl_find_msg+0xa90>
   12130:	e3520001 	cmp	r2, #1
   12134:	ca000006 	bgt	12154 <_nl_find_msg+0xac4>
   12138:	e5953008 	ldr	r3, [r5, #8]
   1213c:	e7933004 	ldr	r3, [r3, r4]
   12140:	eafffdf6 	b	11920 <_nl_find_msg+0x290>
   12144:	e5850004 	str	r0, [r5, #4]
   12148:	eaffff20 	b	11dd0 <_nl_find_msg+0x740>
   1214c:	e3a02000 	mov	r2, #0
   12150:	eafffed3 	b	11ca4 <_nl_find_msg+0x614>
   12154:	ebfffc2d 	bl	11210 <__aeabi_read_tp>
   12158:	e51014b8 	ldr	r1, [r0, #-1208]	; 0xfffffb48
   1215c:	e3a02001 	mov	r2, #1
   12160:	e3811001 	orr	r1, r1, #1
   12164:	e59f0020 	ldr	r0, [pc, #32]	; 1218c <_nl_find_msg+0xafc>
   12168:	e3a070f0 	mov	r7, #240	; 0xf0
   1216c:	ef000000 	svc	0x00000000
   12170:	eafffff0 	b	12138 <_nl_find_msg+0xaa8>
	...
   12180:	00099614 	.word	0x00099614
   12184:	00086a44 	.word	0x00086a44
   12188:	00071ac8 	.word	0x00071ac8
   1218c:	00099624 	.word	0x00099624
   12190:	00084378 	.word	0x00084378
   12194:	00071ad8 	.word	0x00071ad8
   12198:	000813ec 	.word	0x000813ec
   1219c:	00000fec 	.word	0x00000fec
   121a0:	000739e0 	.word	0x000739e0

000121a4 <__dcigettext>:
   121a4:	e92d4ff0 	push	{r4, r5, r6, r7, r8, r9, sl, fp, lr}
   121a8:	e28db020 	add	fp, sp, #32
   121ac:	e3510000 	cmp	r1, #0
   121b0:	e24dd064 	sub	sp, sp, #100	; 0x64
   121b4:	e50b1054 	str	r1, [fp, #-84]	; 0xffffffac
   121b8:	e50b2060 	str	r2, [fp, #-96]	; 0xffffffa0
   121bc:	e50b305c 	str	r3, [fp, #-92]	; 0xffffffa4
   121c0:	0a000137 	beq	126a4 <__dcigettext+0x500>
   121c4:	e59b3008 	ldr	r3, [fp, #8]
   121c8:	e2434006 	sub	r4, r3, #6
   121cc:	e16f4f14 	clz	r4, r4
   121d0:	e1a042a4 	lsr	r4, r4, #5
   121d4:	e353000c 	cmp	r3, #12
   121d8:	83844001 	orrhi	r4, r4, #1
   121dc:	e3540000 	cmp	r4, #0
   121e0:	0a000007 	beq	12204 <__dcigettext+0x60>
   121e4:	e51b305c 	ldr	r3, [fp, #-92]	; 0xffffffa4
   121e8:	e59b2004 	ldr	r2, [fp, #4]
   121ec:	e3520001 	cmp	r2, #1
   121f0:	13530000 	cmpne	r3, #0
   121f4:	0a00012a 	beq	126a4 <__dcigettext+0x500>
   121f8:	e51b0060 	ldr	r0, [fp, #-96]	; 0xffffffa0
   121fc:	e24bd020 	sub	sp, fp, #32
   12200:	e8bd8ff0 	pop	{r4, r5, r6, r7, r8, r9, sl, fp, pc}
   12204:	e59f5764 	ldr	r5, [pc, #1892]	; 12970 <__dcigettext+0x7cc>
   12208:	e1a07000 	mov	r7, r0
   1220c:	e3550000 	cmp	r5, #0
   12210:	0a00001a 	beq	12280 <__dcigettext+0xdc>
   12214:	e59f0758 	ldr	r0, [pc, #1880]	; 12974 <__dcigettext+0x7d0>
   12218:	e1a00000 	nop			; (mov r0, r0)
   1221c:	e59f0754 	ldr	r0, [pc, #1876]	; 12978 <__dcigettext+0x7d4>
   12220:	e1a00000 	nop			; (mov r0, r0)
   12224:	e3570000 	cmp	r7, #0
   12228:	0a000141 	beq	12734 <__dcigettext+0x590>
   1222c:	e51b3054 	ldr	r3, [fp, #-84]	; 0xffffffac
   12230:	e59b0008 	ldr	r0, [fp, #8]
   12234:	e50b3028 	str	r3, [fp, #-40]	; 0xffffffd8
   12238:	e50b4034 	str	r4, [fp, #-52]	; 0xffffffcc
   1223c:	e50b7044 	str	r7, [fp, #-68]	; 0xffffffbc
   12240:	e50b0040 	str	r0, [fp, #-64]	; 0xffffffc0
   12244:	eb0090fd 	bl	36640 <__current_locale_name>
   12248:	e1a04000 	mov	r4, r0
   1224c:	eb0049f3 	bl	24a20 <strlen>
   12250:	e1a01004 	mov	r1, r4
   12254:	e280300f 	add	r3, r0, #15
   12258:	e3c33007 	bic	r3, r3, #7
   1225c:	e04dd003 	sub	sp, sp, r3
   12260:	e2802001 	add	r2, r0, #1
   12264:	e28d0008 	add	r0, sp, #8
   12268:	eb004f00 	bl	25e70 <memcpy>
   1226c:	e50b0070 	str	r0, [fp, #-112]	; 0xffffff90
   12270:	e50b003c 	str	r0, [fp, #-60]	; 0xffffffc4
   12274:	e59f0700 	ldr	r0, [pc, #1792]	; 1297c <__dcigettext+0x7d8>
   12278:	e1a00000 	nop			; (mov r0, r0)
   1227c:	ea000013 	b	122d0 <__dcigettext+0x12c>
   12280:	e3500000 	cmp	r0, #0
   12284:	0a00012a 	beq	12734 <__dcigettext+0x590>
   12288:	e51b3054 	ldr	r3, [fp, #-84]	; 0xffffffac
   1228c:	e59b0008 	ldr	r0, [fp, #8]
   12290:	e50b3028 	str	r3, [fp, #-40]	; 0xffffffd8
   12294:	e50b5034 	str	r5, [fp, #-52]	; 0xffffffcc
   12298:	e50b7044 	str	r7, [fp, #-68]	; 0xffffffbc
   1229c:	e50b0040 	str	r0, [fp, #-64]	; 0xffffffc0
   122a0:	eb0090e6 	bl	36640 <__current_locale_name>
   122a4:	e1a04000 	mov	r4, r0
   122a8:	eb0049dc 	bl	24a20 <strlen>
   122ac:	e1a01004 	mov	r1, r4
   122b0:	e280300f 	add	r3, r0, #15
   122b4:	e3c33007 	bic	r3, r3, #7
   122b8:	e04dd003 	sub	sp, sp, r3
   122bc:	e2802001 	add	r2, r0, #1
   122c0:	e28d0008 	add	r0, sp, #8
   122c4:	eb004ee9 	bl	25e70 <memcpy>
   122c8:	e50b0070 	str	r0, [fp, #-112]	; 0xffffff90
   122cc:	e50b003c 	str	r0, [fp, #-60]	; 0xffffffc4
   122d0:	e24b0044 	sub	r0, fp, #68	; 0x44
   122d4:	e59f16a4 	ldr	r1, [pc, #1700]	; 12980 <__dcigettext+0x7dc>
   122d8:	e59f26a4 	ldr	r2, [pc, #1700]	; 12984 <__dcigettext+0x7e0>
   122dc:	eb0058a5 	bl	28578 <__tfind>
   122e0:	e59f36a0 	ldr	r3, [pc, #1696]	; 12988 <__dcigettext+0x7e4>
   122e4:	e3530000 	cmp	r3, #0
   122e8:	e50b0064 	str	r0, [fp, #-100]	; 0xffffff9c
   122ec:	0a000001 	beq	122f8 <__dcigettext+0x154>
   122f0:	e59f0684 	ldr	r0, [pc, #1668]	; 1297c <__dcigettext+0x7d8>
   122f4:	e1a00000 	nop			; (mov r0, r0)
   122f8:	e51b3064 	ldr	r3, [fp, #-100]	; 0xffffff9c
   122fc:	e3530000 	cmp	r3, #0
   12300:	0a000005 	beq	1231c <__dcigettext+0x178>
   12304:	e5933000 	ldr	r3, [r3]
   12308:	e59f267c 	ldr	r2, [pc, #1660]	; 1298c <__dcigettext+0x7e8>
   1230c:	e593100c 	ldr	r1, [r3, #12]
   12310:	e5922000 	ldr	r2, [r2]
   12314:	e1510002 	cmp	r1, r2
   12318:	0a000123 	beq	127ac <__dcigettext+0x608>
   1231c:	e59f366c 	ldr	r3, [pc, #1644]	; 12990 <__dcigettext+0x7ec>
   12320:	e59f266c 	ldr	r2, [pc, #1644]	; 12994 <__dcigettext+0x7f0>
   12324:	ebfffbb9 	bl	11210 <__aeabi_read_tp>
   12328:	e79f3003 	ldr	r3, [pc, r3]
   1232c:	e5924000 	ldr	r4, [r2]
   12330:	e7903003 	ldr	r3, [r0, r3]
   12334:	e3540000 	cmp	r4, #0
   12338:	e50b306c 	str	r3, [fp, #-108]	; 0xffffff94
   1233c:	1a000004 	bne	12354 <__dcigettext+0x1b0>
   12340:	ea0000f8 	b	12728 <__dcigettext+0x584>
   12344:	ba000114 	blt	1279c <__dcigettext+0x5f8>
   12348:	e5944000 	ldr	r4, [r4]
   1234c:	e3540000 	cmp	r4, #0
   12350:	0a0000f4 	beq	12728 <__dcigettext+0x584>
   12354:	e1a00007 	mov	r0, r7
   12358:	e284100c 	add	r1, r4, #12
   1235c:	eb0048fb 	bl	24750 <strcmp>
   12360:	e3500000 	cmp	r0, #0
   12364:	1afffff6 	bne	12344 <__dcigettext+0x1a0>
   12368:	e5946004 	ldr	r6, [r4, #4]
   1236c:	e1a05000 	mov	r5, r0
   12370:	e5d63000 	ldrb	r3, [r6]
   12374:	e353002f 	cmp	r3, #47	; 0x2f
   12378:	059f5618 	ldreq	r5, [pc, #1560]	; 12998 <__dcigettext+0x7f4>
   1237c:	0a000024 	beq	12414 <__dcigettext+0x270>
   12380:	e1a00006 	mov	r0, r6
   12384:	eb0049a5 	bl	24a20 <strlen>
   12388:	e59fa60c 	ldr	sl, [pc, #1548]	; 1299c <__dcigettext+0x7f8>
   1238c:	e59f960c 	ldr	r9, [pc, #1548]	; 129a0 <__dcigettext+0x7fc>
   12390:	e50b5050 	str	r5, [fp, #-80]	; 0xffffffb0
   12394:	e2808001 	add	r8, r0, #1
   12398:	ea000004 	b	123b0 <__dcigettext+0x20c>
   1239c:	e59f3600 	ldr	r3, [pc, #1536]	; 129a4 <__dcigettext+0x800>
   123a0:	e79f3003 	ldr	r3, [pc, r3]
   123a4:	e7953003 	ldr	r3, [r5, r3]
   123a8:	e3530022 	cmp	r3, #34	; 0x22
   123ac:	1a0000ab 	bne	12660 <__dcigettext+0x4bc>
   123b0:	e08a3008 	add	r3, sl, r8
   123b4:	e283300e 	add	r3, r3, #14
   123b8:	e3c33007 	bic	r3, r3, #7
   123bc:	e04dd003 	sub	sp, sp, r3
   123c0:	e79f3009 	ldr	r3, [pc, r9]
   123c4:	ebfffb91 	bl	11210 <__aeabi_read_tp>
   123c8:	e51b2050 	ldr	r2, [fp, #-80]	; 0xffffffb0
   123cc:	e1a05000 	mov	r5, r0
   123d0:	e28d6008 	add	r6, sp, #8
   123d4:	e1a0100a 	mov	r1, sl
   123d8:	e1a00006 	mov	r0, r6
   123dc:	e7852003 	str	r2, [r5, r3]
   123e0:	eb00545c 	bl	27558 <__getcwd>
   123e4:	e08aa0aa 	add	sl, sl, sl, lsr #1
   123e8:	e28aa020 	add	sl, sl, #32
   123ec:	e3500000 	cmp	r0, #0
   123f0:	0affffe9 	beq	1239c <__dcigettext+0x1f8>
   123f4:	e3a01000 	mov	r1, #0
   123f8:	e1a00006 	mov	r0, r6
   123fc:	eb004f67 	bl	261a0 <__rawmemchr>
   12400:	e59f5590 	ldr	r5, [pc, #1424]	; 12998 <__dcigettext+0x7f4>
   12404:	e1d530b0 	ldrh	r3, [r5]
   12408:	e0c030b1 	strh	r3, [r0], #1
   1240c:	e5941004 	ldr	r1, [r4, #4]
   12410:	eb0048de 	bl	24790 <strcpy>
   12414:	e59f258c 	ldr	r2, [pc, #1420]	; 129a8 <__dcigettext+0x804>
   12418:	e59b1008 	ldr	r1, [fp, #8]
   1241c:	e59f3588 	ldr	r3, [pc, #1416]	; 129ac <__dcigettext+0x808>
   12420:	e59f0588 	ldr	r0, [pc, #1416]	; 129b0 <__dcigettext+0x80c>
   12424:	e7d28001 	ldrb	r8, [r2, r1]
   12428:	e0888003 	add	r8, r8, r3
   1242c:	eb000fa6 	bl	162cc <getenv>
   12430:	e2509000 	subs	r9, r0, #0
   12434:	0a0000b7 	beq	12718 <__dcigettext+0x574>
   12438:	e5d93000 	ldrb	r3, [r9]
   1243c:	e3530000 	cmp	r3, #0
   12440:	0a0000b4 	beq	12718 <__dcigettext+0x574>
   12444:	e59b0008 	ldr	r0, [fp, #8]
   12448:	eb00907c 	bl	36640 <__current_locale_name>
   1244c:	e5d03000 	ldrb	r3, [r0]
   12450:	e1a0a000 	mov	sl, r0
   12454:	e3530043 	cmp	r3, #67	; 0x43
   12458:	11a0a009 	movne	sl, r9
   1245c:	1a000002 	bne	1246c <__dcigettext+0x2c8>
   12460:	e5da3001 	ldrb	r3, [sl, #1]
   12464:	e3530000 	cmp	r3, #0
   12468:	11a0a009 	movne	sl, r9
   1246c:	e1a00007 	mov	r0, r7
   12470:	eb00496a 	bl	24a20 <strlen>
   12474:	e24b9048 	sub	r9, fp, #72	; 0x48
   12478:	e50b0068 	str	r0, [fp, #-104]	; 0xffffff98
   1247c:	e1a00008 	mov	r0, r8
   12480:	eb004966 	bl	24a20 <strlen>
   12484:	e51b3068 	ldr	r3, [fp, #-104]	; 0xffffff98
   12488:	e1a01008 	mov	r1, r8
   1248c:	e59f8520 	ldr	r8, [pc, #1312]	; 129b4 <__dcigettext+0x810>
   12490:	e0830000 	add	r0, r3, r0
   12494:	e2803013 	add	r3, r0, #19
   12498:	e3c33007 	bic	r3, r3, #7
   1249c:	e04dd003 	sub	sp, sp, r3
   124a0:	e28d0008 	add	r0, sp, #8
   124a4:	e50b0050 	str	r0, [fp, #-80]	; 0xffffffb0
   124a8:	eb0048b4 	bl	24780 <__stpcpy>
   124ac:	e1d530b0 	ldrh	r3, [r5]
   124b0:	e51b2068 	ldr	r2, [fp, #-104]	; 0xffffff98
   124b4:	e1a01007 	mov	r1, r7
   124b8:	e0c030b1 	strh	r3, [r0], #1
   124bc:	eb004e53 	bl	25e10 <__mempcpy>
   124c0:	e59f24f0 	ldr	r2, [pc, #1264]	; 129b8 <__dcigettext+0x814>
   124c4:	e1a03000 	mov	r3, r0
   124c8:	e5920000 	ldr	r0, [r2]
   124cc:	e5830000 	str	r0, [r3]
   124d0:	e1a0000a 	mov	r0, sl
   124d4:	eb004951 	bl	24a20 <strlen>
   124d8:	e280000f 	add	r0, r0, #15
   124dc:	e3c00007 	bic	r0, r0, #7
   124e0:	e04dd000 	sub	sp, sp, r0
   124e4:	e28d5008 	add	r5, sp, #8
   124e8:	e5da3000 	ldrb	r3, [sl]
   124ec:	e353003a 	cmp	r3, #58	; 0x3a
   124f0:	0a000086 	beq	12710 <__dcigettext+0x56c>
   124f4:	e3530000 	cmp	r3, #0
   124f8:	1a00006c 	bne	126b0 <__dcigettext+0x50c>
   124fc:	e3a02043 	mov	r2, #67	; 0x43
   12500:	e5c53001 	strb	r3, [r5, #1]
   12504:	e5c52000 	strb	r2, [r5]
   12508:	e5d53001 	ldrb	r3, [r5, #1]
   1250c:	e3530000 	cmp	r3, #0
   12510:	0a000052 	beq	12660 <__dcigettext+0x4bc>
   12514:	e1a00005 	mov	r0, r5
   12518:	e59f149c 	ldr	r1, [pc, #1180]	; 129bc <__dcigettext+0x818>
   1251c:	eb00488b 	bl	24750 <strcmp>
   12520:	e3500000 	cmp	r0, #0
   12524:	0a00004d 	beq	12660 <__dcigettext+0x4bc>
   12528:	e1a03004 	mov	r3, r4
   1252c:	e1a00006 	mov	r0, r6
   12530:	e1a01005 	mov	r1, r5
   12534:	e51b2050 	ldr	r2, [fp, #-80]	; 0xffffffb0
   12538:	eb000125 	bl	129d4 <_nl_find_domain>
   1253c:	e2503000 	subs	r3, r0, #0
   12540:	e50b3058 	str	r3, [fp, #-88]	; 0xffffffa8
   12544:	0affffe7 	beq	124e8 <__dcigettext+0x344>
   12548:	e3a03001 	mov	r3, #1
   1254c:	e58d9000 	str	r9, [sp]
   12550:	e1a01004 	mov	r1, r4
   12554:	e51b2054 	ldr	r2, [fp, #-84]	; 0xffffffac
   12558:	ebfffc4c 	bl	11690 <_nl_find_msg>
   1255c:	e2503000 	subs	r3, r0, #0
   12560:	0a000025 	beq	125fc <__dcigettext+0x458>
   12564:	e3730001 	cmn	r3, #1
   12568:	0a00003c 	beq	12660 <__dcigettext+0x4bc>
   1256c:	e51b2064 	ldr	r2, [fp, #-100]	; 0xffffff9c
   12570:	e3520000 	cmp	r2, #0
   12574:	0a00009a 	beq	127e4 <__dcigettext+0x640>
   12578:	e51b0064 	ldr	r0, [fp, #-100]	; 0xffffff9c
   1257c:	e51be058 	ldr	lr, [fp, #-88]	; 0xffffffa8
   12580:	e59fc404 	ldr	ip, [pc, #1028]	; 1298c <__dcigettext+0x7e8>
   12584:	e5902000 	ldr	r2, [r0]
   12588:	e51b1048 	ldr	r1, [fp, #-72]	; 0xffffffb8
   1258c:	e59cc000 	ldr	ip, [ip]
   12590:	e582e010 	str	lr, [r2, #16]
   12594:	e1a0e000 	mov	lr, r0
   12598:	e5900000 	ldr	r0, [r0]
   1259c:	e582c00c 	str	ip, [r2, #12]
   125a0:	e5803014 	str	r3, [r0, #20]
   125a4:	e59e2000 	ldr	r2, [lr]
   125a8:	e5821018 	str	r1, [r2, #24]
   125ac:	e59f240c 	ldr	r2, [pc, #1036]	; 129c0 <__dcigettext+0x81c>
   125b0:	e51b105c 	ldr	r1, [fp, #-92]	; 0xffffffa4
   125b4:	ebfffb15 	bl	11210 <__aeabi_read_tp>
   125b8:	e79f2002 	ldr	r2, [pc, r2]
   125bc:	e3510000 	cmp	r1, #0
   125c0:	e51b106c 	ldr	r1, [fp, #-108]	; 0xffffff94
   125c4:	e7801002 	str	r1, [r0, r2]
   125c8:	1a0000e0 	bne	12950 <__dcigettext+0x7ac>
   125cc:	e59f23b4 	ldr	r2, [pc, #948]	; 12988 <__dcigettext+0x7e4>
   125d0:	e3520000 	cmp	r2, #0
   125d4:	01a00003 	moveq	r0, r3
   125d8:	0affff07 	beq	121fc <__dcigettext+0x58>
   125dc:	e59f0390 	ldr	r0, [pc, #912]	; 12974 <__dcigettext+0x7d0>
   125e0:	e50b3050 	str	r3, [fp, #-80]	; 0xffffffb0
   125e4:	e1a00000 	nop			; (mov r0, r0)
   125e8:	e59f0388 	ldr	r0, [pc, #904]	; 12978 <__dcigettext+0x7d4>
   125ec:	e1a00000 	nop			; (mov r0, r0)
   125f0:	e51b3050 	ldr	r3, [fp, #-80]	; 0xffffffb0
   125f4:	e1a00003 	mov	r0, r3
   125f8:	eafffeff 	b	121fc <__dcigettext+0x58>
   125fc:	e51b2058 	ldr	r2, [fp, #-88]	; 0xffffffa8
   12600:	e5920010 	ldr	r0, [r2, #16]
   12604:	e3500000 	cmp	r0, #0
   12608:	0affffb6 	beq	124e8 <__dcigettext+0x344>
   1260c:	e2822010 	add	r2, r2, #16
   12610:	e50b6074 	str	r6, [fp, #-116]	; 0xffffff8c
   12614:	e50b5078 	str	r5, [fp, #-120]	; 0xffffff88
   12618:	e50ba07c 	str	sl, [fp, #-124]	; 0xffffff84
   1261c:	e1a05002 	mov	r5, r2
   12620:	e1a06003 	mov	r6, r3
   12624:	e51ba054 	ldr	sl, [fp, #-84]	; 0xffffffac
   12628:	ea000005 	b	12644 <__dcigettext+0x4a0>
   1262c:	e3500000 	cmp	r0, #0
   12630:	1a0000c0 	bne	12938 <__dcigettext+0x794>
   12634:	e5b50004 	ldr	r0, [r5, #4]!
   12638:	e2866001 	add	r6, r6, #1
   1263c:	e3500000 	cmp	r0, #0
   12640:	0a0000b8 	beq	12928 <__dcigettext+0x784>
   12644:	e58d9000 	str	r9, [sp]
   12648:	e1a01004 	mov	r1, r4
   1264c:	e1a0200a 	mov	r2, sl
   12650:	e3a03001 	mov	r3, #1
   12654:	ebfffc0d 	bl	11690 <_nl_find_msg>
   12658:	e3700001 	cmn	r0, #1
   1265c:	1afffff2 	bne	1262c <__dcigettext+0x488>
   12660:	e59f3320 	ldr	r3, [pc, #800]	; 12988 <__dcigettext+0x7e4>
   12664:	e3530000 	cmp	r3, #0
   12668:	0a000003 	beq	1267c <__dcigettext+0x4d8>
   1266c:	e59f0300 	ldr	r0, [pc, #768]	; 12974 <__dcigettext+0x7d0>
   12670:	e1a00000 	nop			; (mov r0, r0)
   12674:	e59f02fc 	ldr	r0, [pc, #764]	; 12978 <__dcigettext+0x7d4>
   12678:	e1a00000 	nop			; (mov r0, r0)
   1267c:	e59f3340 	ldr	r3, [pc, #832]	; 129c4 <__dcigettext+0x820>
   12680:	e51b205c 	ldr	r2, [fp, #-92]	; 0xffffffa4
   12684:	e59b1004 	ldr	r1, [fp, #4]
   12688:	e79f3003 	ldr	r3, [pc, r3]
   1268c:	ebfffadf 	bl	11210 <__aeabi_read_tp>
   12690:	e3510001 	cmp	r1, #1
   12694:	13520000 	cmpne	r2, #0
   12698:	e51b206c 	ldr	r2, [fp, #-108]	; 0xffffff94
   1269c:	e7802003 	str	r2, [r0, r3]
   126a0:	1afffed4 	bne	121f8 <__dcigettext+0x54>
   126a4:	e51b0054 	ldr	r0, [fp, #-84]	; 0xffffffac
   126a8:	e24bd020 	sub	sp, fp, #32
   126ac:	e8bd8ff0 	pop	{r4, r5, r6, r7, r8, r9, sl, fp, pc}
   126b0:	e28a2001 	add	r2, sl, #1
   126b4:	e1a01005 	mov	r1, r5
   126b8:	e4c13001 	strb	r3, [r1], #1
   126bc:	e5d23000 	ldrb	r3, [r2]
   126c0:	e1a0a002 	mov	sl, r2
   126c4:	e2822001 	add	r2, r2, #1
   126c8:	e353003a 	cmp	r3, #58	; 0x3a
   126cc:	13530000 	cmpne	r3, #0
   126d0:	13a00001 	movne	r0, #1
   126d4:	03a00000 	moveq	r0, #0
   126d8:	1afffff6 	bne	126b8 <__dcigettext+0x514>
   126dc:	e5983000 	ldr	r3, [r8]
   126e0:	e5c10000 	strb	r0, [r1]
   126e4:	e3530000 	cmp	r3, #0
   126e8:	0a000004 	beq	12700 <__dcigettext+0x55c>
   126ec:	e1a00005 	mov	r0, r5
   126f0:	e3a0102f 	mov	r1, #47	; 0x2f
   126f4:	eb0047e1 	bl	24680 <strchr>
   126f8:	e3500000 	cmp	r0, #0
   126fc:	1affff79 	bne	124e8 <__dcigettext+0x344>
   12700:	e5d53000 	ldrb	r3, [r5]
   12704:	e3530043 	cmp	r3, #67	; 0x43
   12708:	1affff81 	bne	12514 <__dcigettext+0x370>
   1270c:	eaffff7d 	b	12508 <__dcigettext+0x364>
   12710:	e28aa001 	add	sl, sl, #1
   12714:	eaffff73 	b	124e8 <__dcigettext+0x344>
   12718:	e59b0008 	ldr	r0, [fp, #8]
   1271c:	eb008fc7 	bl	36640 <__current_locale_name>
   12720:	e1a0a000 	mov	sl, r0
   12724:	eaffff50 	b	1246c <__dcigettext+0x2c8>
   12728:	e59f6298 	ldr	r6, [pc, #664]	; 129c8 <__dcigettext+0x824>
   1272c:	e59f5264 	ldr	r5, [pc, #612]	; 12998 <__dcigettext+0x7f4>
   12730:	eaffff37 	b	12414 <__dcigettext+0x270>
   12734:	e59f2290 	ldr	r2, [pc, #656]	; 129cc <__dcigettext+0x828>
   12738:	e59b0008 	ldr	r0, [fp, #8]
   1273c:	e3a03000 	mov	r3, #0
   12740:	e5927000 	ldr	r7, [r2]
   12744:	e51b2054 	ldr	r2, [fp, #-84]	; 0xffffffac
   12748:	e50b3034 	str	r3, [fp, #-52]	; 0xffffffcc
   1274c:	e50b2028 	str	r2, [fp, #-40]	; 0xffffffd8
   12750:	e50b0040 	str	r0, [fp, #-64]	; 0xffffffc0
   12754:	e50b7044 	str	r7, [fp, #-68]	; 0xffffffbc
   12758:	eb008fb8 	bl	36640 <__current_locale_name>
   1275c:	e1a04000 	mov	r4, r0
   12760:	eb0048ae 	bl	24a20 <strlen>
   12764:	e1a01004 	mov	r1, r4
   12768:	e280300f 	add	r3, r0, #15
   1276c:	e3c33007 	bic	r3, r3, #7
   12770:	e04dd003 	sub	sp, sp, r3
   12774:	e2802001 	add	r2, r0, #1
   12778:	e28d0008 	add	r0, sp, #8
   1277c:	eb004dbb 	bl	25e70 <memcpy>
   12780:	e3550000 	cmp	r5, #0
   12784:	e50b0070 	str	r0, [fp, #-112]	; 0xffffff90
   12788:	e50b003c 	str	r0, [fp, #-60]	; 0xffffffc4
   1278c:	0afffecf 	beq	122d0 <__dcigettext+0x12c>
   12790:	e59f01e4 	ldr	r0, [pc, #484]	; 1297c <__dcigettext+0x7d8>
   12794:	e1a00000 	nop			; (mov r0, r0)
   12798:	eafffecc 	b	122d0 <__dcigettext+0x12c>
   1279c:	e59f6224 	ldr	r6, [pc, #548]	; 129c8 <__dcigettext+0x824>
   127a0:	e59f51f0 	ldr	r5, [pc, #496]	; 12998 <__dcigettext+0x7f4>
   127a4:	e3a04000 	mov	r4, #0
   127a8:	eaffff19 	b	12414 <__dcigettext+0x270>
   127ac:	e51b205c 	ldr	r2, [fp, #-92]	; 0xffffffa4
   127b0:	e3520000 	cmp	r2, #0
   127b4:	05934014 	ldreq	r4, [r3, #20]
   127b8:	1a000052 	bne	12908 <__dcigettext+0x764>
   127bc:	e59f31c4 	ldr	r3, [pc, #452]	; 12988 <__dcigettext+0x7e4>
   127c0:	e3530000 	cmp	r3, #0
   127c4:	01a00004 	moveq	r0, r4
   127c8:	0afffe8b 	beq	121fc <__dcigettext+0x58>
   127cc:	e59f01a0 	ldr	r0, [pc, #416]	; 12974 <__dcigettext+0x7d0>
   127d0:	e1a00000 	nop			; (mov r0, r0)
   127d4:	e59f019c 	ldr	r0, [pc, #412]	; 12978 <__dcigettext+0x7d4>
   127d8:	e1a00000 	nop			; (mov r0, r0)
   127dc:	e1a00004 	mov	r0, r4
   127e0:	eafffe85 	b	121fc <__dcigettext+0x58>
   127e4:	e51ba054 	ldr	sl, [fp, #-84]	; 0xffffffac
   127e8:	e50b3050 	str	r3, [fp, #-80]	; 0xffffffb0
   127ec:	e1a0000a 	mov	r0, sl
   127f0:	eb00488a 	bl	24a20 <strlen>
   127f4:	e51b9070 	ldr	r9, [fp, #-112]	; 0xffffff90
   127f8:	e2805001 	add	r5, r0, #1
   127fc:	e1a00009 	mov	r0, r9
   12800:	eb004886 	bl	24a20 <strlen>
   12804:	e51b8068 	ldr	r8, [fp, #-104]	; 0xffffff98
   12808:	e1a04000 	mov	r4, r0
   1280c:	e288001e 	add	r0, r8, #30
   12810:	e0800004 	add	r0, r0, r4
   12814:	e0800005 	add	r0, r0, r5
   12818:	eb003f13 	bl	2246c <__libc_malloc>
   1281c:	e51b3050 	ldr	r3, [fp, #-80]	; 0xffffffb0
   12820:	e2506000 	subs	r6, r0, #0
   12824:	0affff60 	beq	125ac <__dcigettext+0x408>
   12828:	e1a02005 	mov	r2, r5
   1282c:	e1a0100a 	mov	r1, sl
   12830:	e286001c 	add	r0, r6, #28
   12834:	eb004d75 	bl	25e10 <__mempcpy>
   12838:	e2885001 	add	r5, r8, #1
   1283c:	e1a02005 	mov	r2, r5
   12840:	e1a01007 	mov	r1, r7
   12844:	e0805005 	add	r5, r0, r5
   12848:	e1a08000 	mov	r8, r0
   1284c:	eb004d87 	bl	25e70 <memcpy>
   12850:	e1a01009 	mov	r1, r9
   12854:	e2842001 	add	r2, r4, #1
   12858:	e1a00005 	mov	r0, r5
   1285c:	eb004d83 	bl	25e70 <memcpy>
   12860:	e59b3008 	ldr	r3, [fp, #8]
   12864:	e59f1120 	ldr	r1, [pc, #288]	; 1298c <__dcigettext+0x7e8>
   12868:	e5863004 	str	r3, [r6, #4]
   1286c:	e51b3058 	ldr	r3, [fp, #-88]	; 0xffffffa8
   12870:	e59f0158 	ldr	r0, [pc, #344]	; 129d0 <__dcigettext+0x82c>
   12874:	e51b2048 	ldr	r2, [fp, #-72]	; 0xffffffb8
   12878:	e5911000 	ldr	r1, [r1]
   1287c:	e5863010 	str	r3, [r6, #16]
   12880:	e51b3050 	ldr	r3, [fp, #-80]	; 0xffffffb0
   12884:	e3500000 	cmp	r0, #0
   12888:	e5865008 	str	r5, [r6, #8]
   1288c:	e5868000 	str	r8, [r6]
   12890:	e5863014 	str	r3, [r6, #20]
   12894:	e586100c 	str	r1, [r6, #12]
   12898:	e5862018 	str	r2, [r6, #24]
   1289c:	0a000002 	beq	128ac <__dcigettext+0x708>
   128a0:	e59f00d4 	ldr	r0, [pc, #212]	; 1297c <__dcigettext+0x7d8>
   128a4:	e1a00000 	nop			; (mov r0, r0)
   128a8:	e51b3050 	ldr	r3, [fp, #-80]	; 0xffffffb0
   128ac:	e1a00006 	mov	r0, r6
   128b0:	e59f10c8 	ldr	r1, [pc, #200]	; 12980 <__dcigettext+0x7dc>
   128b4:	e59f20c8 	ldr	r2, [pc, #200]	; 12984 <__dcigettext+0x7e0>
   128b8:	e50b3050 	str	r3, [fp, #-80]	; 0xffffffb0
   128bc:	eb0056d3 	bl	28410 <__tsearch>
   128c0:	e59f30c0 	ldr	r3, [pc, #192]	; 12988 <__dcigettext+0x7e4>
   128c4:	e3530000 	cmp	r3, #0
   128c8:	e51b3050 	ldr	r3, [fp, #-80]	; 0xffffffb0
   128cc:	e1a04000 	mov	r4, r0
   128d0:	0a000002 	beq	128e0 <__dcigettext+0x73c>
   128d4:	e59f00a0 	ldr	r0, [pc, #160]	; 1297c <__dcigettext+0x7d8>
   128d8:	e1a00000 	nop			; (mov r0, r0)
   128dc:	e51b3050 	ldr	r3, [fp, #-80]	; 0xffffffb0
   128e0:	e3540000 	cmp	r4, #0
   128e4:	0a000002 	beq	128f4 <__dcigettext+0x750>
   128e8:	e5942000 	ldr	r2, [r4]
   128ec:	e1560002 	cmp	r6, r2
   128f0:	0affff2d 	beq	125ac <__dcigettext+0x408>
   128f4:	e1a00006 	mov	r0, r6
   128f8:	e50b3050 	str	r3, [fp, #-80]	; 0xffffffb0
   128fc:	eb0040af 	bl	22bc0 <__cfree>
   12900:	e51b3050 	ldr	r3, [fp, #-80]	; 0xffffffb0
   12904:	eaffff28 	b	125ac <__dcigettext+0x408>
   12908:	e5930010 	ldr	r0, [r3, #16]
   1290c:	e5932014 	ldr	r2, [r3, #20]
   12910:	e59b1004 	ldr	r1, [fp, #4]
   12914:	e5900008 	ldr	r0, [r0, #8]
   12918:	e5933018 	ldr	r3, [r3, #24]
   1291c:	ebfffb40 	bl	11624 <plural_lookup.isra.1>
   12920:	e1a04000 	mov	r4, r0
   12924:	eaffffa4 	b	127bc <__dcigettext+0x618>
   12928:	e51b6074 	ldr	r6, [fp, #-116]	; 0xffffff8c
   1292c:	e51b5078 	ldr	r5, [fp, #-120]	; 0xffffff88
   12930:	e51ba07c 	ldr	sl, [fp, #-124]	; 0xffffff84
   12934:	eafffeeb 	b	124e8 <__dcigettext+0x344>
   12938:	e51b2058 	ldr	r2, [fp, #-88]	; 0xffffffa8
   1293c:	e2868004 	add	r8, r6, #4
   12940:	e1a03000 	mov	r3, r0
   12944:	e7922108 	ldr	r2, [r2, r8, lsl #2]
   12948:	e50b2058 	str	r2, [fp, #-88]	; 0xffffffa8
   1294c:	eaffff06 	b	1256c <__dcigettext+0x3c8>
   12950:	e51b2058 	ldr	r2, [fp, #-88]	; 0xffffffa8
   12954:	e59b1004 	ldr	r1, [fp, #4]
   12958:	e5920008 	ldr	r0, [r2, #8]
   1295c:	e1a02003 	mov	r2, r3
   12960:	e51b3048 	ldr	r3, [fp, #-72]	; 0xffffffb8
   12964:	ebfffb2e 	bl	11624 <plural_lookup.isra.1>
   12968:	e1a03000 	mov	r3, r0
   1296c:	eaffff16 	b	125cc <__dcigettext+0x428>
   12970:	00000000 	.word	0x00000000
   12974:	00099f24 	.word	0x00099f24
   12978:	00099630 	.word	0x00099630
   1297c:	00099650 	.word	0x00099650
   12980:	00099614 	.word	0x00099614
   12984:	000115b8 	.word	0x000115b8
   12988:	00000000 	.word	0x00000000
   1298c:	0009a3e8 	.word	0x0009a3e8
   12990:	00086224 	.word	0x00086224
   12994:	0009a3e4 	.word	0x0009a3e4
   12998:	00074608 	.word	0x00074608
   1299c:	00001002 	.word	0x00001002
   129a0:	0008618c 	.word	0x0008618c
   129a4:	000861ac 	.word	0x000861ac
   129a8:	00074e7c 	.word	0x00074e7c
   129ac:	00074df0 	.word	0x00074df0
   129b0:	00071ae4 	.word	0x00071ae4
   129b4:	000984f0 	.word	0x000984f0
   129b8:	00071af0 	.word	0x00071af0
   129bc:	00071af4 	.word	0x00071af4
   129c0:	00085f94 	.word	0x00085f94
   129c4:	00085ec4 	.word	0x00085ec4
   129c8:	00071afc 	.word	0x00071afc
   129cc:	00098594 	.word	0x00098594
   129d0:	00000000 	.word	0x00000000

000129d4 <_nl_find_domain>:
   129d4:	e59fc264 	ldr	ip, [pc, #612]	; 12c40 <_nl_find_domain+0x26c>
   129d8:	e92d4ff0 	push	{r4, r5, r6, r7, r8, r9, sl, fp, lr}
   129dc:	e35c0000 	cmp	ip, #0
   129e0:	e28db020 	add	fp, sp, #32
   129e4:	e1a05000 	mov	r5, r0
   129e8:	e24dd03c 	sub	sp, sp, #60	; 0x3c
   129ec:	e1a07001 	mov	r7, r1
   129f0:	e1a09002 	mov	r9, r2
   129f4:	e1a06003 	mov	r6, r3
   129f8:	0a000001 	beq	12a04 <_nl_find_domain+0x30>
   129fc:	e59f0240 	ldr	r0, [pc, #576]	; 12c44 <_nl_find_domain+0x270>
   12a00:	e1a00000 	nop			; (mov r0, r0)
   12a04:	e1a00005 	mov	r0, r5
   12a08:	eb004804 	bl	24a20 <strlen>
   12a0c:	e3a03000 	mov	r3, #0
   12a10:	e58d7000 	str	r7, [sp]
   12a14:	e58d9014 	str	r9, [sp, #20]
   12a18:	e58d3004 	str	r3, [sp, #4]
   12a1c:	e58d3008 	str	r3, [sp, #8]
   12a20:	e58d300c 	str	r3, [sp, #12]
   12a24:	e58d3010 	str	r3, [sp, #16]
   12a28:	e58d3018 	str	r3, [sp, #24]
   12a2c:	e1a01005 	mov	r1, r5
   12a30:	e59f8210 	ldr	r8, [pc, #528]	; 12c48 <_nl_find_domain+0x274>
   12a34:	e2802001 	add	r2, r0, #1
   12a38:	e59f020c 	ldr	r0, [pc, #524]	; 12c4c <_nl_find_domain+0x278>
   12a3c:	eb00077e 	bl	1483c <_nl_make_l10nflist>
   12a40:	e3580000 	cmp	r8, #0
   12a44:	e1a04000 	mov	r4, r0
   12a48:	0a000001 	beq	12a54 <_nl_find_domain+0x80>
   12a4c:	e59f01f0 	ldr	r0, [pc, #496]	; 12c44 <_nl_find_domain+0x270>
   12a50:	e1a00000 	nop			; (mov r0, r0)
   12a54:	e3540000 	cmp	r4, #0
   12a58:	0a00001e 	beq	12ad8 <_nl_find_domain+0x104>
   12a5c:	e5943004 	ldr	r3, [r4, #4]
   12a60:	e3530000 	cmp	r3, #0
   12a64:	da000017 	ble	12ac8 <_nl_find_domain+0xf4>
   12a68:	e5943008 	ldr	r3, [r4, #8]
   12a6c:	e3530000 	cmp	r3, #0
   12a70:	0a000002 	beq	12a80 <_nl_find_domain+0xac>
   12a74:	e1a00004 	mov	r0, r4
   12a78:	e24bd020 	sub	sp, fp, #32
   12a7c:	e8bd8ff0 	pop	{r4, r5, r6, r7, r8, r9, sl, fp, pc}
   12a80:	e5940010 	ldr	r0, [r4, #16]
   12a84:	e3500000 	cmp	r0, #0
   12a88:	0afffff9 	beq	12a74 <_nl_find_domain+0xa0>
   12a8c:	e2845010 	add	r5, r4, #16
   12a90:	ea000006 	b	12ab0 <_nl_find_domain+0xdc>
   12a94:	e5953000 	ldr	r3, [r5]
   12a98:	e5932008 	ldr	r2, [r3, #8]
   12a9c:	e3520000 	cmp	r2, #0
   12aa0:	1afffff3 	bne	12a74 <_nl_find_domain+0xa0>
   12aa4:	e5b50004 	ldr	r0, [r5, #4]!
   12aa8:	e3500000 	cmp	r0, #0
   12aac:	0afffff0 	beq	12a74 <_nl_find_domain+0xa0>
   12ab0:	e5903004 	ldr	r3, [r0, #4]
   12ab4:	e3530000 	cmp	r3, #0
   12ab8:	cafffff5 	bgt	12a94 <_nl_find_domain+0xc0>
   12abc:	e1a01006 	mov	r1, r6
   12ac0:	eb000063 	bl	12c54 <_nl_load_domain>
   12ac4:	eafffff2 	b	12a94 <_nl_find_domain+0xc0>
   12ac8:	e1a00004 	mov	r0, r4
   12acc:	e1a01006 	mov	r1, r6
   12ad0:	eb00005f 	bl	12c54 <_nl_load_domain>
   12ad4:	eaffffe3 	b	12a68 <_nl_find_domain+0x94>
   12ad8:	e1a00007 	mov	r0, r7
   12adc:	eb0006e9 	bl	14688 <_nl_expand_alias>
   12ae0:	e2504000 	subs	r4, r0, #0
   12ae4:	0a000008 	beq	12b0c <_nl_find_domain+0x138>
   12ae8:	eb0047cc 	bl	24a20 <strlen>
   12aec:	e1a01004 	mov	r1, r4
   12af0:	e280300f 	add	r3, r0, #15
   12af4:	e3c33007 	bic	r3, r3, #7
   12af8:	e04dd003 	sub	sp, sp, r3
   12afc:	e2802001 	add	r2, r0, #1
   12b00:	e28d0020 	add	r0, sp, #32
   12b04:	eb004cd9 	bl	25e70 <memcpy>
   12b08:	e1a07000 	mov	r7, r0
   12b0c:	e24b202c 	sub	r2, fp, #44	; 0x2c
   12b10:	e24b3028 	sub	r3, fp, #40	; 0x28
   12b14:	e1a00007 	mov	r0, r7
   12b18:	e88d000c 	stm	sp, {r2, r3}
   12b1c:	e24b1038 	sub	r1, fp, #56	; 0x38
   12b20:	e24b2034 	sub	r2, fp, #52	; 0x34
   12b24:	e24b3030 	sub	r3, fp, #48	; 0x30
   12b28:	eb00088f 	bl	14d6c <_nl_explode_name>
   12b2c:	e3700001 	cmn	r0, #1
   12b30:	e1a07000 	mov	r7, r0
   12b34:	0a00003f 	beq	12c38 <_nl_find_domain+0x264>
   12b38:	e59f3110 	ldr	r3, [pc, #272]	; 12c50 <_nl_find_domain+0x27c>
   12b3c:	e3530000 	cmp	r3, #0
   12b40:	0a000001 	beq	12b4c <_nl_find_domain+0x178>
   12b44:	e59f00f8 	ldr	r0, [pc, #248]	; 12c44 <_nl_find_domain+0x270>
   12b48:	e1a00000 	nop			; (mov r0, r0)
   12b4c:	e1a00005 	mov	r0, r5
   12b50:	eb0047b2 	bl	24a20 <strlen>
   12b54:	e51b4030 	ldr	r4, [fp, #-48]	; 0xffffffd0
   12b58:	e51be02c 	ldr	lr, [fp, #-44]	; 0xffffffd4
   12b5c:	e51b2034 	ldr	r2, [fp, #-52]	; 0xffffffcc
   12b60:	e51ba038 	ldr	sl, [fp, #-56]	; 0xffffffc8
   12b64:	e51bc028 	ldr	ip, [fp, #-40]	; 0xffffffd8
   12b68:	e3a03001 	mov	r3, #1
   12b6c:	e98d4010 	stmib	sp, {r4, lr}
   12b70:	e58d2010 	str	r2, [sp, #16]
   12b74:	e58d3018 	str	r3, [sp, #24]
   12b78:	e58d9014 	str	r9, [sp, #20]
   12b7c:	e1a01005 	mov	r1, r5
   12b80:	e58da000 	str	sl, [sp]
   12b84:	e58dc00c 	str	ip, [sp, #12]
   12b88:	e1a03007 	mov	r3, r7
   12b8c:	e2802001 	add	r2, r0, #1
   12b90:	e59f00b4 	ldr	r0, [pc, #180]	; 12c4c <_nl_find_domain+0x278>
   12b94:	eb000728 	bl	1483c <_nl_make_l10nflist>
   12b98:	e3580000 	cmp	r8, #0
   12b9c:	e1a04000 	mov	r4, r0
   12ba0:	0a000001 	beq	12bac <_nl_find_domain+0x1d8>
   12ba4:	e59f0098 	ldr	r0, [pc, #152]	; 12c44 <_nl_find_domain+0x270>
   12ba8:	e1a00000 	nop			; (mov r0, r0)
   12bac:	e3540000 	cmp	r4, #0
   12bb0:	0a000005 	beq	12bcc <_nl_find_domain+0x1f8>
   12bb4:	e5943004 	ldr	r3, [r4, #4]
   12bb8:	e3530000 	cmp	r3, #0
   12bbc:	da000019 	ble	12c28 <_nl_find_domain+0x254>
   12bc0:	e5943008 	ldr	r3, [r4, #8]
   12bc4:	e3530000 	cmp	r3, #0
   12bc8:	0a000004 	beq	12be0 <_nl_find_domain+0x20c>
   12bcc:	e3170001 	tst	r7, #1
   12bd0:	0affffa7 	beq	12a74 <_nl_find_domain+0xa0>
   12bd4:	e51b0028 	ldr	r0, [fp, #-40]	; 0xffffffd8
   12bd8:	eb003ff8 	bl	22bc0 <__cfree>
   12bdc:	eaffffa4 	b	12a74 <_nl_find_domain+0xa0>
   12be0:	e5940010 	ldr	r0, [r4, #16]
   12be4:	e3500000 	cmp	r0, #0
   12be8:	0afffff7 	beq	12bcc <_nl_find_domain+0x1f8>
   12bec:	e2845010 	add	r5, r4, #16
   12bf0:	ea000006 	b	12c10 <_nl_find_domain+0x23c>
   12bf4:	e5953000 	ldr	r3, [r5]
   12bf8:	e5933008 	ldr	r3, [r3, #8]
   12bfc:	e3530000 	cmp	r3, #0
   12c00:	1afffff1 	bne	12bcc <_nl_find_domain+0x1f8>
   12c04:	e5b50004 	ldr	r0, [r5, #4]!
   12c08:	e3500000 	cmp	r0, #0
   12c0c:	0affffee 	beq	12bcc <_nl_find_domain+0x1f8>
   12c10:	e5903004 	ldr	r3, [r0, #4]
   12c14:	e3530000 	cmp	r3, #0
   12c18:	cafffff5 	bgt	12bf4 <_nl_find_domain+0x220>
   12c1c:	e1a01006 	mov	r1, r6
   12c20:	eb00000b 	bl	12c54 <_nl_load_domain>
   12c24:	eafffff2 	b	12bf4 <_nl_find_domain+0x220>
   12c28:	e1a00004 	mov	r0, r4
   12c2c:	e1a01006 	mov	r1, r6
   12c30:	eb000007 	bl	12c54 <_nl_load_domain>
   12c34:	eaffffe1 	b	12bc0 <_nl_find_domain+0x1ec>
   12c38:	e3a00000 	mov	r0, #0
   12c3c:	eaffff8d 	b	12a78 <_nl_find_domain+0xa4>
   12c40:	00000000 	.word	0x00000000
   12c44:	00099670 	.word	0x00099670
   12c48:	00000000 	.word	0x00000000
   12c4c:	00099690 	.word	0x00099690
   12c50:	00000000 	.word	0x00000000

00012c54 <_nl_load_domain>:
   12c54:	e92d4ff0 	push	{r4, r5, r6, r7, r8, r9, sl, fp, lr}
   12c58:	e28db020 	add	fp, sp, #32
   12c5c:	e59f4ef0 	ldr	r4, [pc, #3824]	; 13b54 <_nl_load_domain+0xf00>
   12c60:	e24dd0d4 	sub	sp, sp, #212	; 0xd4
   12c64:	e5943008 	ldr	r3, [r4, #8]
   12c68:	e1a08000 	mov	r8, r0
   12c6c:	ebfff967 	bl	11210 <__aeabi_read_tp>
   12c70:	e2405d13 	sub	r5, r0, #1216	; 0x4c0
   12c74:	e1530005 	cmp	r3, r5
   12c78:	e50b009c 	str	r0, [fp, #-156]	; 0xffffff64
   12c7c:	e50b1098 	str	r1, [fp, #-152]	; 0xffffff68
   12c80:	0a00000e 	beq	12cc0 <_nl_load_domain+0x6c>
   12c84:	e3a03000 	mov	r3, #0
   12c88:	e50b308c 	str	r3, [fp, #-140]	; 0xffffff74
   12c8c:	e3a03001 	mov	r3, #1
   12c90:	e1942f9f 	ldrex	r2, [r4]
   12c94:	e3520000 	cmp	r2, #0
   12c98:	1a000003 	bne	12cac <_nl_load_domain+0x58>
   12c9c:	e1841f93 	strex	r1, r3, [r4]
   12ca0:	e3510000 	cmp	r1, #0
   12ca4:	1afffff9 	bne	12c90 <_nl_load_domain+0x3c>
   12ca8:	ee070fba 	mcr	15, 0, r0, cr7, cr10, {5}
   12cac:	150b208c 	strne	r2, [fp, #-140]	; 0xffffff74
   12cb0:	e51b308c 	ldr	r3, [fp, #-140]	; 0xffffff74
   12cb4:	e3530000 	cmp	r3, #0
   12cb8:	1a0000bf 	bne	12fbc <_nl_load_domain+0x368>
   12cbc:	e5845008 	str	r5, [r4, #8]
   12cc0:	e5943004 	ldr	r3, [r4, #4]
   12cc4:	e5981004 	ldr	r1, [r8, #4]
   12cc8:	e2832001 	add	r2, r3, #1
   12ccc:	e3510000 	cmp	r1, #0
   12cd0:	e5842004 	str	r2, [r4, #4]
   12cd4:	e59fce78 	ldr	ip, [pc, #3704]	; 13b54 <_nl_load_domain+0xf00>
   12cd8:	0a000004 	beq	12cf0 <_nl_load_domain+0x9c>
   12cdc:	e3530000 	cmp	r3, #0
   12ce0:	e58c3004 	str	r3, [ip, #4]
   12ce4:	0a000093 	beq	12f38 <_nl_load_domain+0x2e4>
   12ce8:	e24bd020 	sub	sp, fp, #32
   12cec:	e8bd8ff0 	pop	{r4, r5, r6, r7, r8, r9, sl, fp, pc}
   12cf0:	e5980000 	ldr	r0, [r8]
   12cf4:	e3e03000 	mvn	r3, #0
   12cf8:	e3500000 	cmp	r0, #0
   12cfc:	e5881008 	str	r1, [r8, #8]
   12d00:	e5883004 	str	r3, [r8, #4]
   12d04:	0a000076 	beq	12ee4 <_nl_load_domain+0x290>
   12d08:	e3a07005 	mov	r7, #5
   12d0c:	ef000000 	svc	0x00000000
   12d10:	e3700a01 	cmn	r0, #4096	; 0x1000
   12d14:	e1a05000 	mov	r5, r0
   12d18:	8a00016f 	bhi	132dc <_nl_load_domain+0x688>
   12d1c:	e3a00003 	mov	r0, #3
   12d20:	e1a01005 	mov	r1, r5
   12d24:	e24b208c 	sub	r2, fp, #140	; 0x8c
   12d28:	eb005138 	bl	27210 <___fxstat64>
   12d2c:	e3500000 	cmp	r0, #0
   12d30:	1a000067 	bne	12ed4 <_nl_load_domain+0x280>
   12d34:	e14b25dc 	ldrd	r2, [fp, #-92]	; 0xffffffa4
   12d38:	e1a07003 	mov	r7, r3
   12d3c:	e3a03000 	mov	r3, #0
   12d40:	e1570003 	cmp	r7, r3
   12d44:	e1a06002 	mov	r6, r2
   12d48:	01560002 	cmpeq	r6, r2
   12d4c:	13a03001 	movne	r3, #1
   12d50:	03a03000 	moveq	r3, #0
   12d54:	e356002f 	cmp	r6, #47	; 0x2f
   12d58:	93833001 	orrls	r3, r3, #1
   12d5c:	e3530000 	cmp	r3, #0
   12d60:	e14b6af4 	strd	r6, [fp, #-164]	; 0xffffff5c
   12d64:	1a00005a 	bne	12ed4 <_nl_load_domain+0x280>
   12d68:	e58d3004 	str	r3, [sp, #4]
   12d6c:	e58d5000 	str	r5, [sp]
   12d70:	e1a01006 	mov	r1, r6
   12d74:	e3a02001 	mov	r2, #1
   12d78:	e3a03002 	mov	r3, #2
   12d7c:	eb0054cb 	bl	280b0 <__mmap>
   12d80:	e3700001 	cmn	r0, #1
   12d84:	e1a09000 	mov	r9, r0
   12d88:	0a000034 	beq	12e60 <_nl_load_domain+0x20c>
   12d8c:	e1a00005 	mov	r0, r5
   12d90:	e3a07006 	mov	r7, #6
   12d94:	ef000000 	svc	0x00000000
   12d98:	e59f2db8 	ldr	r2, [pc, #3512]	; 13b58 <_nl_load_domain+0xf04>
   12d9c:	e5993000 	ldr	r3, [r9]
   12da0:	e59f1db4 	ldr	r1, [pc, #3508]	; 13b5c <_nl_load_domain+0xf08>
   12da4:	e0537002 	subs	r7, r3, r2
   12da8:	13a07001 	movne	r7, #1
   12dac:	e1530001 	cmp	r3, r1
   12db0:	11530002 	cmpne	r3, r2
   12db4:	1a0001cb 	bne	134e8 <_nl_load_domain+0x894>
   12db8:	e3a03001 	mov	r3, #1
   12dbc:	e50b30a8 	str	r3, [fp, #-168]	; 0xffffff58
   12dc0:	e3a00068 	mov	r0, #104	; 0x68
   12dc4:	eb003da8 	bl	2246c <__libc_malloc>
   12dc8:	e2505000 	subs	r5, r0, #0
   12dcc:	0a000043 	beq	12ee0 <_nl_load_domain+0x28c>
   12dd0:	e51b30a8 	ldr	r3, [fp, #-168]	; 0xffffff58
   12dd4:	e3a00000 	mov	r0, #0
   12dd8:	e5853004 	str	r3, [r5, #4]
   12ddc:	e51b30a4 	ldr	r3, [fp, #-164]	; 0xffffff5c
   12de0:	e3570000 	cmp	r7, #0
   12de4:	e5853008 	str	r3, [r5, #8]
   12de8:	e5885008 	str	r5, [r8, #8]
   12dec:	e5859000 	str	r9, [r5]
   12df0:	e585700c 	str	r7, [r5, #12]
   12df4:	e5850010 	str	r0, [r5, #16]
   12df8:	e5993004 	ldr	r3, [r9, #4]
   12dfc:	0a000071 	beq	12fc8 <_nl_load_domain+0x374>
   12e00:	e6bf3f33 	rev	r3, r3
   12e04:	e3530802 	cmp	r3, #131072	; 0x20000
   12e08:	2a000060 	bcs	12f90 <_nl_load_domain+0x33c>
   12e0c:	e5990014 	ldr	r0, [r9, #20]
   12e10:	e599100c 	ldr	r1, [r9, #12]
   12e14:	e5992010 	ldr	r2, [r9, #16]
   12e18:	e599c008 	ldr	ip, [r9, #8]
   12e1c:	e6bf0f30 	rev	r0, r0
   12e20:	e1a0e000 	mov	lr, r0
   12e24:	e6bf1f31 	rev	r1, r1
   12e28:	e6bf2f32 	rev	r2, r2
   12e2c:	e50b00ac 	str	r0, [fp, #-172]	; 0xffffff54
   12e30:	e0891001 	add	r1, r9, r1
   12e34:	e6bf0f3c 	rev	r0, ip
   12e38:	e0892002 	add	r2, r9, r2
   12e3c:	e35e0002 	cmp	lr, #2
   12e40:	e5851018 	str	r1, [r5, #24]
   12e44:	e5850014 	str	r0, [r5, #20]
   12e48:	e585201c 	str	r2, [r5, #28]
   12e4c:	e585e02c 	str	lr, [r5, #44]	; 0x2c
   12e50:	9a000128 	bls	132f8 <_nl_load_domain+0x6a4>
   12e54:	e5992018 	ldr	r2, [r9, #24]
   12e58:	e6bf2f32 	rev	r2, r2
   12e5c:	ea00006a 	b	1300c <_nl_load_domain+0x3b8>
   12e60:	e14b6ad4 	ldrd	r6, [fp, #-164]	; 0xffffff5c
   12e64:	e1a00006 	mov	r0, r6
   12e68:	eb003d7f 	bl	2246c <__libc_malloc>
   12e6c:	e2509000 	subs	r9, r0, #0
   12e70:	0a000017 	beq	12ed4 <_nl_load_domain+0x280>
   12e74:	e1a03006 	mov	r3, r6
   12e78:	e1a0a009 	mov	sl, r9
   12e7c:	e51b609c 	ldr	r6, [fp, #-156]	; 0xffffff64
   12e80:	ea000004 	b	12e98 <_nl_load_domain+0x244>
   12e84:	e3500000 	cmp	r0, #0
   12e88:	da000010 	ble	12ed0 <_nl_load_domain+0x27c>
   12e8c:	e0533000 	subs	r3, r3, r0
   12e90:	e08aa000 	add	sl, sl, r0
   12e94:	0a0001a6 	beq	13534 <_nl_load_domain+0x8e0>
   12e98:	e1a00005 	mov	r0, r5
   12e9c:	e1a0100a 	mov	r1, sl
   12ea0:	e1a02003 	mov	r2, r3
   12ea4:	e3a07003 	mov	r7, #3
   12ea8:	ef000000 	svc	0x00000000
   12eac:	e3700a01 	cmn	r0, #4096	; 0x1000
   12eb0:	9afffff3 	bls	12e84 <_nl_load_domain+0x230>
   12eb4:	e59f2ca4 	ldr	r2, [pc, #3236]	; 13b60 <_nl_load_domain+0xf0c>
   12eb8:	e79f1002 	ldr	r1, [pc, r2]
   12ebc:	e2602000 	rsb	r2, r0, #0
   12ec0:	ebfff8d2 	bl	11210 <__aeabi_read_tp>
   12ec4:	e3520004 	cmp	r2, #4
   12ec8:	e7802001 	str	r2, [r0, r1]
   12ecc:	0afffff1 	beq	12e98 <_nl_load_domain+0x244>
   12ed0:	e50b609c 	str	r6, [fp, #-156]	; 0xffffff64
   12ed4:	e1a00005 	mov	r0, r5
   12ed8:	e3a07006 	mov	r7, #6
   12edc:	ef000000 	svc	0x00000000
   12ee0:	e5942004 	ldr	r2, [r4, #4]
   12ee4:	e2423001 	sub	r3, r2, #1
   12ee8:	e3530000 	cmp	r3, #0
   12eec:	e3a02001 	mov	r2, #1
   12ef0:	e5882004 	str	r2, [r8, #4]
   12ef4:	e59f0c58 	ldr	r0, [pc, #3160]	; 13b54 <_nl_load_domain+0xf00>
   12ef8:	e5843004 	str	r3, [r4, #4]
   12efc:	1affff79 	bne	12ce8 <_nl_load_domain+0x94>
   12f00:	e5803008 	str	r3, [r0, #8]
   12f04:	ee070fba 	mcr	15, 0, r0, cr7, cr10, {5}
   12f08:	e1901f9f 	ldrex	r1, [r0]
   12f0c:	e180cf93 	strex	ip, r3, [r0]
   12f10:	e35c0000 	cmp	ip, #0
   12f14:	1afffffb 	bne	12f08 <_nl_load_domain+0x2b4>
   12f18:	e1510002 	cmp	r1, r2
   12f1c:	daffff71 	ble	12ce8 <_nl_load_domain+0x94>
   12f20:	e51b109c 	ldr	r1, [fp, #-156]	; 0xffffff64
   12f24:	e3a070f0 	mov	r7, #240	; 0xf0
   12f28:	e51114b8 	ldr	r1, [r1, #-1208]	; 0xfffffb48
   12f2c:	e1811002 	orr	r1, r1, r2
   12f30:	ef000000 	svc	0x00000000
   12f34:	eaffff6b 	b	12ce8 <_nl_load_domain+0x94>
   12f38:	e58c3008 	str	r3, [ip, #8]
   12f3c:	ee070fba 	mcr	15, 0, r0, cr7, cr10, {5}
   12f40:	e19c2f9f 	ldrex	r2, [ip]
   12f44:	e18c1f93 	strex	r1, r3, [ip]
   12f48:	e3510000 	cmp	r1, #0
   12f4c:	1afffffb 	bne	12f40 <_nl_load_domain+0x2ec>
   12f50:	e3520001 	cmp	r2, #1
   12f54:	daffff63 	ble	12ce8 <_nl_load_domain+0x94>
   12f58:	e51b209c 	ldr	r2, [fp, #-156]	; 0xffffff64
   12f5c:	e1a0000c 	mov	r0, ip
   12f60:	e3a070f0 	mov	r7, #240	; 0xf0
   12f64:	e51214b8 	ldr	r1, [r2, #-1208]	; 0xfffffb48
   12f68:	e3a02001 	mov	r2, #1
   12f6c:	e3811001 	orr	r1, r1, #1
   12f70:	ef000000 	svc	0x00000000
   12f74:	eaffff5b 	b	12ce8 <_nl_load_domain+0x94>
   12f78:	e59f3be4 	ldr	r3, [pc, #3044]	; 13b64 <_nl_load_domain+0xf10>
   12f7c:	e3530000 	cmp	r3, #0
   12f80:	0a0000e2 	beq	13310 <_nl_load_domain+0x6bc>
   12f84:	e2850040 	add	r0, r5, #64	; 0x40
   12f88:	e1a00000 	nop			; (mov r0, r0)
   12f8c:	e5950010 	ldr	r0, [r5, #16]
   12f90:	eb003f0a 	bl	22bc0 <__cfree>
   12f94:	e51b30a8 	ldr	r3, [fp, #-168]	; 0xffffff58
   12f98:	e1a00009 	mov	r0, r9
   12f9c:	e3530000 	cmp	r3, #0
   12fa0:	1a0000af 	bne	13264 <_nl_load_domain+0x610>
   12fa4:	eb003f05 	bl	22bc0 <__cfree>
   12fa8:	e1a00005 	mov	r0, r5
   12fac:	eb003f03 	bl	22bc0 <__cfree>
   12fb0:	e3a03000 	mov	r3, #0
   12fb4:	e5883008 	str	r3, [r8, #8]
   12fb8:	eaffffc8 	b	12ee0 <_nl_load_domain+0x28c>
   12fbc:	e59f0b90 	ldr	r0, [pc, #2960]	; 13b54 <_nl_load_domain+0xf00>
   12fc0:	eb0058ae 	bl	29280 <__lll_lock_wait_private>
   12fc4:	eaffff3c 	b	12cbc <_nl_load_domain+0x68>
   12fc8:	e3530802 	cmp	r3, #131072	; 0x20000
   12fcc:	2a0000a7 	bcs	13270 <_nl_load_domain+0x61c>
   12fd0:	e5990014 	ldr	r0, [r9, #20]
   12fd4:	e599100c 	ldr	r1, [r9, #12]
   12fd8:	e5992010 	ldr	r2, [r9, #16]
   12fdc:	e1a0c000 	mov	ip, r0
   12fe0:	e50b00ac 	str	r0, [fp, #-172]	; 0xffffff54
   12fe4:	e5990008 	ldr	r0, [r9, #8]
   12fe8:	e0891001 	add	r1, r9, r1
   12fec:	e0892002 	add	r2, r9, r2
   12ff0:	e35c0002 	cmp	ip, #2
   12ff4:	e5851018 	str	r1, [r5, #24]
   12ff8:	e5850014 	str	r0, [r5, #20]
   12ffc:	e585201c 	str	r2, [r5, #28]
   13000:	e585c02c 	str	ip, [r5, #44]	; 0x2c
   13004:	9a0000bb 	bls	132f8 <_nl_load_domain+0x6a4>
   13008:	e5992018 	ldr	r2, [r9, #24]
   1300c:	e6ff3073 	uxth	r3, r3
   13010:	e3530000 	cmp	r3, #0
   13014:	e0893002 	add	r3, r9, r2
   13018:	e5853030 	str	r3, [r5, #48]	; 0x30
   1301c:	e5857034 	str	r7, [r5, #52]	; 0x34
   13020:	0a000094 	beq	13278 <_nl_load_domain+0x624>
   13024:	e3530000 	cmp	r3, #0
   13028:	0a0000b8 	beq	13310 <_nl_load_domain+0x6bc>
   1302c:	e3570000 	cmp	r7, #0
   13030:	e5993024 	ldr	r3, [r9, #36]	; 0x24
   13034:	0a0000b7 	beq	13318 <_nl_load_domain+0x6c4>
   13038:	e6bf3f33 	rev	r3, r3
   1303c:	e3530000 	cmp	r3, #0
   13040:	e50b30b0 	str	r3, [fp, #-176]	; 0xffffff50
   13044:	0a00008b 	beq	13278 <_nl_load_domain+0x624>
   13048:	e599301c 	ldr	r3, [r9, #28]
   1304c:	e5992020 	ldr	r2, [r9, #32]
   13050:	e6bf3f33 	rev	r3, r3
   13054:	e50b30c0 	str	r3, [fp, #-192]	; 0xffffff40
   13058:	e3530000 	cmp	r3, #0
   1305c:	e1a03103 	lsl	r3, r3, #2
   13060:	e283300e 	add	r3, r3, #14
   13064:	e3c33007 	bic	r3, r3, #7
   13068:	e04dd003 	sub	sp, sp, r3
   1306c:	e6bf2f32 	rev	r2, r2
   13070:	e28d3008 	add	r3, sp, #8
   13074:	e50b30bc 	str	r3, [fp, #-188]	; 0xffffff44
   13078:	e0890002 	add	r0, r9, r2
   1307c:	0a000121 	beq	13508 <_nl_load_domain+0x8b4>
   13080:	e51b30bc 	ldr	r3, [fp, #-188]	; 0xffffff44
   13084:	e1a0a000 	mov	sl, r0
   13088:	e243c004 	sub	ip, r3, #4
   1308c:	e3a0e000 	mov	lr, #0
   13090:	e50b50b4 	str	r5, [fp, #-180]	; 0xffffff4c
   13094:	e51b10c0 	ldr	r1, [fp, #-192]	; 0xffffff40
   13098:	e50b80b8 	str	r8, [fp, #-184]	; 0xffffff48
   1309c:	ea00000b 	b	130d0 <_nl_load_domain+0x47c>
   130a0:	e3550049 	cmp	r5, #73	; 0x49
   130a4:	1a000004 	bne	130bc <_nl_load_domain+0x468>
   130a8:	e5d32001 	ldrb	r2, [r3, #1]
   130ac:	e59f3ab4 	ldr	r3, [pc, #2740]	; 13b68 <_nl_load_domain+0xf14>
   130b0:	e3520000 	cmp	r2, #0
   130b4:	13a03000 	movne	r3, #0
   130b8:	e1a02003 	mov	r2, r3
   130bc:	e28ee001 	add	lr, lr, #1
   130c0:	e15e0001 	cmp	lr, r1
   130c4:	e5ac2004 	str	r2, [ip, #4]!
   130c8:	e28aa008 	add	sl, sl, #8
   130cc:	2a000109 	bcs	134f8 <_nl_load_domain+0x8a4>
   130d0:	e59a3004 	ldr	r3, [sl, #4]
   130d4:	e3570000 	cmp	r7, #0
   130d8:	e790218e 	ldr	r2, [r0, lr, lsl #3]
   130dc:	00893003 	addeq	r3, r9, r3
   130e0:	16bf3f33 	revne	r3, r3
   130e4:	10893003 	addne	r3, r9, r3
   130e8:	16bf2f32 	revne	r2, r2
   130ec:	e3520000 	cmp	r2, #0
   130f0:	0a0000f8 	beq	134d8 <_nl_load_domain+0x884>
   130f4:	e0832002 	add	r2, r3, r2
   130f8:	e5522001 	ldrb	r2, [r2, #-1]
   130fc:	e3520000 	cmp	r2, #0
   13100:	1a0000f4 	bne	134d8 <_nl_load_domain+0x884>
   13104:	e5d35000 	ldrb	r5, [r3]
   13108:	e3550050 	cmp	r5, #80	; 0x50
   1310c:	1affffe3 	bne	130a0 <_nl_load_domain+0x44c>
   13110:	e5d35001 	ldrb	r5, [r3, #1]
   13114:	e3550052 	cmp	r5, #82	; 0x52
   13118:	1affffe7 	bne	130bc <_nl_load_domain+0x468>
   1311c:	e5d35002 	ldrb	r5, [r3, #2]
   13120:	e3550049 	cmp	r5, #73	; 0x49
   13124:	1affffe4 	bne	130bc <_nl_load_domain+0x468>
   13128:	e5d36003 	ldrb	r6, [r3, #3]
   1312c:	e2465064 	sub	r5, r6, #100	; 0x64
   13130:	e2468069 	sub	r8, r6, #105	; 0x69
   13134:	e16f5f15 	clz	r5, r5
   13138:	e16f8f18 	clz	r8, r8
   1313c:	e1a052a5 	lsr	r5, r5, #5
   13140:	e1a082a8 	lsr	r8, r8, #5
   13144:	e50b50c4 	str	r5, [fp, #-196]	; 0xffffff3c
   13148:	e50b80c8 	str	r8, [fp, #-200]	; 0xffffff38
   1314c:	e1885005 	orr	r5, r8, r5
   13150:	e246806f 	sub	r8, r6, #111	; 0x6f
   13154:	e16f8f18 	clz	r8, r8
   13158:	e1a082a8 	lsr	r8, r8, #5
   1315c:	e1885005 	orr	r5, r8, r5
   13160:	e50b80cc 	str	r8, [fp, #-204]	; 0xffffff34
   13164:	e2468075 	sub	r8, r6, #117	; 0x75
   13168:	e16f8f18 	clz	r8, r8
   1316c:	e1a082a8 	lsr	r8, r8, #5
   13170:	e1885005 	orr	r5, r8, r5
   13174:	e50b80d0 	str	r8, [fp, #-208]	; 0xffffff30
   13178:	e20680df 	and	r8, r6, #223	; 0xdf
   1317c:	e3580058 	cmp	r8, #88	; 0x58
   13180:	03855001 	orreq	r5, r5, #1
   13184:	e3550000 	cmp	r5, #0
   13188:	e2468078 	sub	r8, r6, #120	; 0x78
   1318c:	01a02005 	moveq	r2, r5
   13190:	e16f8f18 	clz	r8, r8
   13194:	e2466058 	sub	r6, r6, #88	; 0x58
   13198:	e1a082a8 	lsr	r8, r8, #5
   1319c:	e16f6f16 	clz	r6, r6
   131a0:	e1a062a6 	lsr	r6, r6, #5
   131a4:	0affffc4 	beq	130bc <_nl_load_domain+0x468>
   131a8:	e5d35004 	ldrb	r5, [r3, #4]
   131ac:	e3550038 	cmp	r5, #56	; 0x38
   131b0:	0a0000ef 	beq	13574 <_nl_load_domain+0x920>
   131b4:	e3550031 	cmp	r5, #49	; 0x31
   131b8:	0a000102 	beq	135c8 <_nl_load_domain+0x974>
   131bc:	e3550033 	cmp	r5, #51	; 0x33
   131c0:	0a000131 	beq	1368c <_nl_load_domain+0xa38>
   131c4:	e3550036 	cmp	r5, #54	; 0x36
   131c8:	0a000116 	beq	13628 <_nl_load_domain+0x9d4>
   131cc:	e355004c 	cmp	r5, #76	; 0x4c
   131d0:	0a000192 	beq	13820 <_nl_load_domain+0xbcc>
   131d4:	e3550046 	cmp	r5, #70	; 0x46
   131d8:	0a000161 	beq	13764 <_nl_load_domain+0xb10>
   131dc:	e355004d 	cmp	r5, #77	; 0x4d
   131e0:	0a000142 	beq	136f0 <_nl_load_domain+0xa9c>
   131e4:	e3550050 	cmp	r5, #80	; 0x50
   131e8:	13a02000 	movne	r2, #0
   131ec:	1affffb2 	bne	130bc <_nl_load_domain+0x468>
   131f0:	e5d32005 	ldrb	r2, [r3, #5]
   131f4:	e3520054 	cmp	r2, #84	; 0x54
   131f8:	13a02000 	movne	r2, #0
   131fc:	1affffae 	bne	130bc <_nl_load_domain+0x468>
   13200:	e5d32006 	ldrb	r2, [r3, #6]
   13204:	e3520052 	cmp	r2, #82	; 0x52
   13208:	13a02000 	movne	r2, #0
   1320c:	1affffaa 	bne	130bc <_nl_load_domain+0x468>
   13210:	e5d33007 	ldrb	r3, [r3, #7]
   13214:	e3530000 	cmp	r3, #0
   13218:	1a0002c1 	bne	13d24 <_nl_load_domain+0x10d0>
   1321c:	e51b30c4 	ldr	r3, [fp, #-196]	; 0xffffff3c
   13220:	e3530000 	cmp	r3, #0
   13224:	1a0002e7 	bne	13dc8 <_nl_load_domain+0x1174>
   13228:	e51b30c8 	ldr	r3, [fp, #-200]	; 0xffffff38
   1322c:	e3530000 	cmp	r3, #0
   13230:	1a0002e2 	bne	13dc0 <_nl_load_domain+0x116c>
   13234:	e51b30cc 	ldr	r3, [fp, #-204]	; 0xffffff34
   13238:	e3530000 	cmp	r3, #0
   1323c:	1a0002dd 	bne	13db8 <_nl_load_domain+0x1164>
   13240:	e51b30d0 	ldr	r3, [fp, #-208]	; 0xffffff30
   13244:	e3530000 	cmp	r3, #0
   13248:	1a0002d8 	bne	13db0 <_nl_load_domain+0x115c>
   1324c:	e3580000 	cmp	r8, #0
   13250:	1a0002cc 	bne	13d88 <_nl_load_domain+0x1134>
   13254:	e3560000 	cmp	r6, #0
   13258:	0a0002c9 	beq	13d84 <_nl_load_domain+0x1130>
   1325c:	e59f292c 	ldr	r2, [pc, #2348]	; 13b90 <_nl_load_domain+0xf3c>
   13260:	eaffff95 	b	130bc <_nl_load_domain+0x468>
   13264:	e51b10a4 	ldr	r1, [fp, #-164]	; 0xffffff5c
   13268:	eb0053bc 	bl	28160 <__munmap>
   1326c:	eaffff4d 	b	12fa8 <_nl_load_domain+0x354>
   13270:	e1a00007 	mov	r0, r7
   13274:	eaffff45 	b	12f90 <_nl_load_domain+0x33c>
   13278:	e3a03000 	mov	r3, #0
   1327c:	e5853020 	str	r3, [r5, #32]
   13280:	e5853024 	str	r3, [r5, #36]	; 0x24
   13284:	e5853028 	str	r3, [r5, #40]	; 0x28
   13288:	e59f38dc 	ldr	r3, [pc, #2268]	; 13b6c <_nl_load_domain+0xf18>
   1328c:	e3a01000 	mov	r1, #0
   13290:	e1530001 	cmp	r3, r1
   13294:	e5851038 	str	r1, [r5, #56]	; 0x38
   13298:	e585103c 	str	r1, [r5, #60]	; 0x3c
   1329c:	0a000001 	beq	132a8 <_nl_load_domain+0x654>
   132a0:	e2850040 	add	r0, r5, #64	; 0x40
   132a4:	e1a00000 	nop			; (mov r0, r0)
   132a8:	e24b3094 	sub	r3, fp, #148	; 0x94
   132ac:	e58d3000 	str	r3, [sp]
   132b0:	e51b1098 	ldr	r1, [fp, #-152]	; 0xffffff68
   132b4:	e1a00008 	mov	r0, r8
   132b8:	e59f28b0 	ldr	r2, [pc, #2224]	; 13b70 <_nl_load_domain+0xf1c>
   132bc:	e3a03000 	mov	r3, #0
   132c0:	ebfff8f2 	bl	11690 <_nl_find_msg>
   132c4:	e3700001 	cmn	r0, #1
   132c8:	0affff2a 	beq	12f78 <_nl_load_domain+0x324>
   132cc:	e2851060 	add	r1, r5, #96	; 0x60
   132d0:	e2852064 	add	r2, r5, #100	; 0x64
   132d4:	eb0009a7 	bl	15978 <__gettext_extract_plural>
   132d8:	eaffff00 	b	12ee0 <_nl_load_domain+0x28c>
   132dc:	e59f3890 	ldr	r3, [pc, #2192]	; 13b74 <_nl_load_domain+0xf20>
   132e0:	e2605000 	rsb	r5, r0, #0
   132e4:	e59c2004 	ldr	r2, [ip, #4]
   132e8:	e79f3003 	ldr	r3, [pc, r3]
   132ec:	ebfff7c7 	bl	11210 <__aeabi_read_tp>
   132f0:	e7805003 	str	r5, [r0, r3]
   132f4:	eafffefa 	b	12ee4 <_nl_load_domain+0x290>
   132f8:	e6ff3073 	uxth	r3, r3
   132fc:	e3530000 	cmp	r3, #0
   13300:	e3a03000 	mov	r3, #0
   13304:	e5857034 	str	r7, [r5, #52]	; 0x34
   13308:	e5853030 	str	r3, [r5, #48]	; 0x30
   1330c:	0affffd9 	beq	13278 <_nl_load_domain+0x624>
   13310:	e5950010 	ldr	r0, [r5, #16]
   13314:	eaffff1d 	b	12f90 <_nl_load_domain+0x33c>
   13318:	e3530000 	cmp	r3, #0
   1331c:	e50b30b0 	str	r3, [fp, #-176]	; 0xffffff50
   13320:	0affffd4 	beq	13278 <_nl_load_domain+0x624>
   13324:	e599301c 	ldr	r3, [r9, #28]
   13328:	e5992020 	ldr	r2, [r9, #32]
   1332c:	e50b30c0 	str	r3, [fp, #-192]	; 0xffffff40
   13330:	e3530000 	cmp	r3, #0
   13334:	e1a03103 	lsl	r3, r3, #2
   13338:	e283300e 	add	r3, r3, #14
   1333c:	e3c33007 	bic	r3, r3, #7
   13340:	e04dd003 	sub	sp, sp, r3
   13344:	e28d3008 	add	r3, sp, #8
   13348:	e50b30bc 	str	r3, [fp, #-188]	; 0xffffff44
   1334c:	e0890002 	add	r0, r9, r2
   13350:	1affff4a 	bne	13080 <_nl_load_domain+0x42c>
   13354:	e5993028 	ldr	r3, [r9, #40]	; 0x28
   13358:	e599202c 	ldr	r2, [r9, #44]	; 0x2c
   1335c:	e0893003 	add	r3, r9, r3
   13360:	e51b10ac 	ldr	r1, [fp, #-172]	; 0xffffff54
   13364:	e51b60bc 	ldr	r6, [fp, #-188]	; 0xffffff44
   13368:	e0892002 	add	r2, r9, r2
   1336c:	e1a01101 	lsl	r1, r1, #2
   13370:	e3a00000 	mov	r0, #0
   13374:	e50b50d8 	str	r5, [fp, #-216]	; 0xffffff28
   13378:	e50b10dc 	str	r1, [fp, #-220]	; 0xffffff24
   1337c:	e51b50c0 	ldr	r5, [fp, #-192]	; 0xffffff40
   13380:	e50b30d4 	str	r3, [fp, #-212]	; 0xffffff2c
   13384:	e50b20d0 	str	r2, [fp, #-208]	; 0xffffff30
   13388:	e50b00cc 	str	r0, [fp, #-204]	; 0xffffff34
   1338c:	e50b20ac 	str	r2, [fp, #-172]	; 0xffffff54
   13390:	e50b30c4 	str	r3, [fp, #-196]	; 0xffffff3c
   13394:	e50b10c8 	str	r1, [fp, #-200]	; 0xffffff38
   13398:	e50b00b8 	str	r0, [fp, #-184]	; 0xffffff48
   1339c:	e50b90b4 	str	r9, [fp, #-180]	; 0xffffff4c
   133a0:	e50b80c0 	str	r8, [fp, #-192]	; 0xffffff40
   133a4:	e3a08000 	mov	r8, #0
   133a8:	e3570000 	cmp	r7, #0
   133ac:	0a000044 	beq	134c4 <_nl_load_domain+0x870>
   133b0:	e3580000 	cmp	r8, #0
   133b4:	051b30c4 	ldreq	r3, [fp, #-196]	; 0xffffff3c
   133b8:	151b30ac 	ldrne	r3, [fp, #-172]	; 0xffffff54
   133bc:	e5933000 	ldr	r3, [r3]
   133c0:	e6bfaf33 	rev	sl, r3
   133c4:	e51b30b4 	ldr	r3, [fp, #-180]	; 0xffffff4c
   133c8:	e083a00a 	add	sl, r3, sl
   133cc:	e59a9008 	ldr	r9, [sl, #8]
   133d0:	e2999001 	adds	r9, r9, #1
   133d4:	13a09001 	movne	r9, #1
   133d8:	e3590000 	cmp	r9, #0
   133dc:	0a000013 	beq	13430 <_nl_load_domain+0x7dc>
   133e0:	e28aa00c 	add	sl, sl, #12
   133e4:	e3a00000 	mov	r0, #0
   133e8:	ea000007 	b	1340c <_nl_load_domain+0x7b8>
   133ec:	e1550003 	cmp	r5, r3
   133f0:	9a00004a 	bls	13520 <_nl_load_domain+0x8cc>
   133f4:	e7960103 	ldr	r0, [r6, r3, lsl #2]
   133f8:	e28aa008 	add	sl, sl, #8
   133fc:	e3500000 	cmp	r0, #0
   13400:	0a000018 	beq	13468 <_nl_load_domain+0x814>
   13404:	eb004585 	bl	24a20 <strlen>
   13408:	e0800009 	add	r0, r0, r9
   1340c:	e51a9008 	ldr	r9, [sl, #-8]
   13410:	e3570000 	cmp	r7, #0
   13414:	e51a3004 	ldr	r3, [sl, #-4]
   13418:	00809009 	addeq	r9, r0, r9
   1341c:	16bf9f39 	revne	r9, r9
   13420:	10899000 	addne	r9, r9, r0
   13424:	16bf3f33 	revne	r3, r3
   13428:	e3730001 	cmn	r3, #1
   1342c:	1affffee 	bne	133ec <_nl_load_domain+0x798>
   13430:	e24b3094 	sub	r3, fp, #148	; 0x94
   13434:	e3580001 	cmp	r8, #1
   13438:	e7839108 	str	r9, [r3, r8, lsl #2]
   1343c:	13a08001 	movne	r8, #1
   13440:	1affffd8 	bne	133a8 <_nl_load_domain+0x754>
   13444:	e51b2094 	ldr	r2, [fp, #-148]	; 0xffffff6c
   13448:	e51b3090 	ldr	r3, [fp, #-144]	; 0xffffff70
   1344c:	e51b10b8 	ldr	r1, [fp, #-184]	; 0xffffff48
   13450:	e0833002 	add	r3, r3, r2
   13454:	e51b20c8 	ldr	r2, [fp, #-200]	; 0xffffff38
   13458:	e2811001 	add	r1, r1, #1
   1345c:	e0823003 	add	r3, r2, r3
   13460:	e50b10b8 	str	r1, [fp, #-184]	; 0xffffff48
   13464:	e50b30c8 	str	r3, [fp, #-200]	; 0xffffff38
   13468:	e51b30cc 	ldr	r3, [fp, #-204]	; 0xffffff34
   1346c:	e51b20b0 	ldr	r2, [fp, #-176]	; 0xffffff50
   13470:	e2833001 	add	r3, r3, #1
   13474:	e50b30cc 	str	r3, [fp, #-204]	; 0xffffff34
   13478:	e1520003 	cmp	r2, r3
   1347c:	e51b30c4 	ldr	r3, [fp, #-196]	; 0xffffff3c
   13480:	e2833004 	add	r3, r3, #4
   13484:	e50b30c4 	str	r3, [fp, #-196]	; 0xffffff3c
   13488:	e51b30ac 	ldr	r3, [fp, #-172]	; 0xffffff54
   1348c:	e2833004 	add	r3, r3, #4
   13490:	e50b30ac 	str	r3, [fp, #-172]	; 0xffffff54
   13494:	8affffc2 	bhi	133a4 <_nl_load_domain+0x750>
   13498:	e51b30b8 	ldr	r3, [fp, #-184]	; 0xffffff48
   1349c:	e51b90b4 	ldr	r9, [fp, #-180]	; 0xffffff4c
   134a0:	e3530000 	cmp	r3, #0
   134a4:	e51b50d8 	ldr	r5, [fp, #-216]	; 0xffffff28
   134a8:	e51b80c0 	ldr	r8, [fp, #-192]	; 0xffffff40
   134ac:	1a00010e 	bne	138ec <_nl_load_domain+0xc98>
   134b0:	e51b30b8 	ldr	r3, [fp, #-184]	; 0xffffff48
   134b4:	e5853020 	str	r3, [r5, #32]
   134b8:	e5853024 	str	r3, [r5, #36]	; 0x24
   134bc:	e5853028 	str	r3, [r5, #40]	; 0x28
   134c0:	eaffff70 	b	13288 <_nl_load_domain+0x634>
   134c4:	e3580000 	cmp	r8, #0
   134c8:	051b30c4 	ldreq	r3, [fp, #-196]	; 0xffffff3c
   134cc:	151b30ac 	ldrne	r3, [fp, #-172]	; 0xffffff54
   134d0:	e593a000 	ldr	sl, [r3]
   134d4:	eaffffba 	b	133c4 <_nl_load_domain+0x770>
   134d8:	e51b50b4 	ldr	r5, [fp, #-180]	; 0xffffff4c
   134dc:	e51b80b8 	ldr	r8, [fp, #-184]	; 0xffffff48
   134e0:	e5950010 	ldr	r0, [r5, #16]
   134e4:	eafffea9 	b	12f90 <_nl_load_domain+0x33c>
   134e8:	e1a00009 	mov	r0, r9
   134ec:	e51b10a4 	ldr	r1, [fp, #-164]	; 0xffffff5c
   134f0:	eb00531a 	bl	28160 <__munmap>
   134f4:	eafffe79 	b	12ee0 <_nl_load_domain+0x28c>
   134f8:	e3570000 	cmp	r7, #0
   134fc:	e51b50b4 	ldr	r5, [fp, #-180]	; 0xffffff4c
   13500:	e51b80b8 	ldr	r8, [fp, #-184]	; 0xffffff48
   13504:	0affff92 	beq	13354 <_nl_load_domain+0x700>
   13508:	e5993028 	ldr	r3, [r9, #40]	; 0x28
   1350c:	e599202c 	ldr	r2, [r9, #44]	; 0x2c
   13510:	e6bf3f33 	rev	r3, r3
   13514:	e0893003 	add	r3, r9, r3
   13518:	e6bf2f32 	rev	r2, r2
   1351c:	eaffff8f 	b	13360 <_nl_load_domain+0x70c>
   13520:	e51b50d8 	ldr	r5, [fp, #-216]	; 0xffffff28
   13524:	e51b90b4 	ldr	r9, [fp, #-180]	; 0xffffff4c
   13528:	e51b80c0 	ldr	r8, [fp, #-192]	; 0xffffff40
   1352c:	e5950010 	ldr	r0, [r5, #16]
   13530:	eafffe96 	b	12f90 <_nl_load_domain+0x33c>
   13534:	e50b609c 	str	r6, [fp, #-156]	; 0xffffff64
   13538:	e1a00005 	mov	r0, r5
   1353c:	e3a07006 	mov	r7, #6
   13540:	ef000000 	svc	0x00000000
   13544:	e59f160c 	ldr	r1, [pc, #1548]	; 13b58 <_nl_load_domain+0xf04>
   13548:	e5992000 	ldr	r2, [r9]
   1354c:	e59f0608 	ldr	r0, [pc, #1544]	; 13b5c <_nl_load_domain+0xf08>
   13550:	e0527001 	subs	r7, r2, r1
   13554:	13a07001 	movne	r7, #1
   13558:	e1520000 	cmp	r2, r0
   1355c:	11520001 	cmpne	r2, r1
   13560:	050b30a8 	streq	r3, [fp, #-168]	; 0xffffff58
   13564:	0afffe15 	beq	12dc0 <_nl_load_domain+0x16c>
   13568:	e1a00009 	mov	r0, r9
   1356c:	eb003d93 	bl	22bc0 <__cfree>
   13570:	eafffe5a 	b	12ee0 <_nl_load_domain+0x28c>
   13574:	e5d33005 	ldrb	r3, [r3, #5]
   13578:	e3530000 	cmp	r3, #0
   1357c:	1afffece 	bne	130bc <_nl_load_domain+0x468>
   13580:	e51b30c4 	ldr	r3, [fp, #-196]	; 0xffffff3c
   13584:	e3530000 	cmp	r3, #0
   13588:	1a0001f3 	bne	13d5c <_nl_load_domain+0x1108>
   1358c:	e51b30c8 	ldr	r3, [fp, #-200]	; 0xffffff38
   13590:	e3530000 	cmp	r3, #0
   13594:	1a0001ee 	bne	13d54 <_nl_load_domain+0x1100>
   13598:	e51b30cc 	ldr	r3, [fp, #-204]	; 0xffffff34
   1359c:	e3530000 	cmp	r3, #0
   135a0:	1a0001e9 	bne	13d4c <_nl_load_domain+0x10f8>
   135a4:	e51b30d0 	ldr	r3, [fp, #-208]	; 0xffffff30
   135a8:	e3530000 	cmp	r3, #0
   135ac:	1a0001e4 	bne	13d44 <_nl_load_domain+0x10f0>
   135b0:	e3580000 	cmp	r8, #0
   135b4:	1a000211 	bne	13e00 <_nl_load_domain+0x11ac>
   135b8:	e3560000 	cmp	r6, #0
   135bc:	0a0001f0 	beq	13d84 <_nl_load_domain+0x1130>
   135c0:	e59f25c8 	ldr	r2, [pc, #1480]	; 13b90 <_nl_load_domain+0xf3c>
   135c4:	eafffebc 	b	130bc <_nl_load_domain+0x468>
   135c8:	e5d35005 	ldrb	r5, [r3, #5]
   135cc:	e3550036 	cmp	r5, #54	; 0x36
   135d0:	1afffeb9 	bne	130bc <_nl_load_domain+0x468>
   135d4:	e5d33006 	ldrb	r3, [r3, #6]
   135d8:	e3530000 	cmp	r3, #0
   135dc:	1a0001e0 	bne	13d64 <_nl_load_domain+0x1110>
   135e0:	e51b30c4 	ldr	r3, [fp, #-196]	; 0xffffff3c
   135e4:	e3530000 	cmp	r3, #0
   135e8:	1a0001df 	bne	13d6c <_nl_load_domain+0x1118>
   135ec:	e51b30c8 	ldr	r3, [fp, #-200]	; 0xffffff38
   135f0:	e3530000 	cmp	r3, #0
   135f4:	1a0001fb 	bne	13de8 <_nl_load_domain+0x1194>
   135f8:	e51b30cc 	ldr	r3, [fp, #-204]	; 0xffffff34
   135fc:	e3530000 	cmp	r3, #0
   13600:	1a0001f6 	bne	13de0 <_nl_load_domain+0x118c>
   13604:	e51b30d0 	ldr	r3, [fp, #-208]	; 0xffffff30
   13608:	e3530000 	cmp	r3, #0
   1360c:	1a0001f9 	bne	13df8 <_nl_load_domain+0x11a4>
   13610:	e3580000 	cmp	r8, #0
   13614:	1a0001f5 	bne	13df0 <_nl_load_domain+0x119c>
   13618:	e3560000 	cmp	r6, #0
   1361c:	0a0001d8 	beq	13d84 <_nl_load_domain+0x1130>
   13620:	e59f2568 	ldr	r2, [pc, #1384]	; 13b90 <_nl_load_domain+0xf3c>
   13624:	eafffea4 	b	130bc <_nl_load_domain+0x468>
   13628:	e5d32005 	ldrb	r2, [r3, #5]
   1362c:	e3520034 	cmp	r2, #52	; 0x34
   13630:	13a02000 	movne	r2, #0
   13634:	1afffea0 	bne	130bc <_nl_load_domain+0x468>
   13638:	e5d33006 	ldrb	r3, [r3, #6]
   1363c:	e3530000 	cmp	r3, #0
   13640:	1a0001bd 	bne	13d3c <_nl_load_domain+0x10e8>
   13644:	e51b30c4 	ldr	r3, [fp, #-196]	; 0xffffff3c
   13648:	e3530000 	cmp	r3, #0
   1364c:	1a0001ca 	bne	13d7c <_nl_load_domain+0x1128>
   13650:	e51b30c8 	ldr	r3, [fp, #-200]	; 0xffffff38
   13654:	e3530000 	cmp	r3, #0
   13658:	1a0001d2 	bne	13da8 <_nl_load_domain+0x1154>
   1365c:	e51b30cc 	ldr	r3, [fp, #-204]	; 0xffffff34
   13660:	e3530000 	cmp	r3, #0
   13664:	1a0001cd 	bne	13da0 <_nl_load_domain+0x114c>
   13668:	e51b30d0 	ldr	r3, [fp, #-208]	; 0xffffff30
   1366c:	e3530000 	cmp	r3, #0
   13670:	1a0001c8 	bne	13d98 <_nl_load_domain+0x1144>
   13674:	e3580000 	cmp	r8, #0
   13678:	1a0001c4 	bne	13d90 <_nl_load_domain+0x113c>
   1367c:	e3560000 	cmp	r6, #0
   13680:	0a0001bf 	beq	13d84 <_nl_load_domain+0x1130>
   13684:	e59f24ec 	ldr	r2, [pc, #1260]	; 13b78 <_nl_load_domain+0xf24>
   13688:	eafffe8b 	b	130bc <_nl_load_domain+0x468>
   1368c:	e5d32005 	ldrb	r2, [r3, #5]
   13690:	e3520032 	cmp	r2, #50	; 0x32
   13694:	13a02000 	movne	r2, #0
   13698:	1afffe87 	bne	130bc <_nl_load_domain+0x468>
   1369c:	e5d33006 	ldrb	r3, [r3, #6]
   136a0:	e3530000 	cmp	r3, #0
   136a4:	1a0001a0 	bne	13d2c <_nl_load_domain+0x10d8>
   136a8:	e51b30c4 	ldr	r3, [fp, #-196]	; 0xffffff3c
   136ac:	e3530000 	cmp	r3, #0
   136b0:	1a00025d 	bne	1402c <_nl_load_domain+0x13d8>
   136b4:	e51b30c8 	ldr	r3, [fp, #-200]	; 0xffffff38
   136b8:	e3530000 	cmp	r3, #0
   136bc:	1a00025e 	bne	1403c <_nl_load_domain+0x13e8>
   136c0:	e51b30cc 	ldr	r3, [fp, #-204]	; 0xffffff34
   136c4:	e3530000 	cmp	r3, #0
   136c8:	1a000259 	bne	14034 <_nl_load_domain+0x13e0>
   136cc:	e51b30d0 	ldr	r3, [fp, #-208]	; 0xffffff30
   136d0:	e3530000 	cmp	r3, #0
   136d4:	1a00024c 	bne	1400c <_nl_load_domain+0x13b8>
   136d8:	e3580000 	cmp	r8, #0
   136dc:	1a000248 	bne	14004 <_nl_load_domain+0x13b0>
   136e0:	e3560000 	cmp	r6, #0
   136e4:	0a0001a6 	beq	13d84 <_nl_load_domain+0x1130>
   136e8:	e59f24a0 	ldr	r2, [pc, #1184]	; 13b90 <_nl_load_domain+0xf3c>
   136ec:	eafffe72 	b	130bc <_nl_load_domain+0x468>
   136f0:	e5d32005 	ldrb	r2, [r3, #5]
   136f4:	e3520041 	cmp	r2, #65	; 0x41
   136f8:	13a02000 	movne	r2, #0
   136fc:	1afffe6e 	bne	130bc <_nl_load_domain+0x468>
   13700:	e5d32006 	ldrb	r2, [r3, #6]
   13704:	e3520058 	cmp	r2, #88	; 0x58
   13708:	13a02000 	movne	r2, #0
   1370c:	1afffe6a 	bne	130bc <_nl_load_domain+0x468>
   13710:	e5d33007 	ldrb	r3, [r3, #7]
   13714:	e3530000 	cmp	r3, #0
   13718:	1a000185 	bne	13d34 <_nl_load_domain+0x10e0>
   1371c:	e51b30c4 	ldr	r3, [fp, #-196]	; 0xffffff3c
   13720:	e3530000 	cmp	r3, #0
   13724:	1a000192 	bne	13d74 <_nl_load_domain+0x1120>
   13728:	e51b30c8 	ldr	r3, [fp, #-200]	; 0xffffff38
   1372c:	e3530000 	cmp	r3, #0
   13730:	1a0001a8 	bne	13dd8 <_nl_load_domain+0x1184>
   13734:	e51b30cc 	ldr	r3, [fp, #-204]	; 0xffffff34
   13738:	e3530000 	cmp	r3, #0
   1373c:	1a0001a3 	bne	13dd0 <_nl_load_domain+0x117c>
   13740:	e51b30d0 	ldr	r3, [fp, #-208]	; 0xffffff30
   13744:	e3530000 	cmp	r3, #0
   13748:	1a000233 	bne	1401c <_nl_load_domain+0x13c8>
   1374c:	e3580000 	cmp	r8, #0
   13750:	1a00022f 	bne	14014 <_nl_load_domain+0x13c0>
   13754:	e3560000 	cmp	r6, #0
   13758:	0a000189 	beq	13d84 <_nl_load_domain+0x1130>
   1375c:	e59f2414 	ldr	r2, [pc, #1044]	; 13b78 <_nl_load_domain+0xf24>
   13760:	eafffe55 	b	130bc <_nl_load_domain+0x468>
   13764:	e5d32005 	ldrb	r2, [r3, #5]
   13768:	e3520041 	cmp	r2, #65	; 0x41
   1376c:	13a02000 	movne	r2, #0
   13770:	1afffe51 	bne	130bc <_nl_load_domain+0x468>
   13774:	e5d32006 	ldrb	r2, [r3, #6]
   13778:	e3520053 	cmp	r2, #83	; 0x53
   1377c:	13a02000 	movne	r2, #0
   13780:	1afffe4d 	bne	130bc <_nl_load_domain+0x468>
   13784:	e5d32007 	ldrb	r2, [r3, #7]
   13788:	e3520054 	cmp	r2, #84	; 0x54
   1378c:	13a02000 	movne	r2, #0
   13790:	1afffe49 	bne	130bc <_nl_load_domain+0x468>
   13794:	e5d32008 	ldrb	r2, [r3, #8]
   13798:	e3520038 	cmp	r2, #56	; 0x38
   1379c:	0a00025c 	beq	14114 <_nl_load_domain+0x14c0>
   137a0:	e3520031 	cmp	r2, #49	; 0x31
   137a4:	0a000241 	beq	140b0 <_nl_load_domain+0x145c>
   137a8:	e3520033 	cmp	r2, #51	; 0x33
   137ac:	0a000226 	beq	1404c <_nl_load_domain+0x13f8>
   137b0:	e3520036 	cmp	r2, #54	; 0x36
   137b4:	13a02000 	movne	r2, #0
   137b8:	1afffe3f 	bne	130bc <_nl_load_domain+0x468>
   137bc:	e5d32009 	ldrb	r2, [r3, #9]
   137c0:	e3520034 	cmp	r2, #52	; 0x34
   137c4:	13a02000 	movne	r2, #0
   137c8:	1afffe3b 	bne	130bc <_nl_load_domain+0x468>
   137cc:	e5d3300a 	ldrb	r3, [r3, #10]
   137d0:	e3530000 	cmp	r3, #0
   137d4:	1a00021a 	bne	14044 <_nl_load_domain+0x13f0>
   137d8:	e51b30c4 	ldr	r3, [fp, #-196]	; 0xffffff3c
   137dc:	e3530000 	cmp	r3, #0
   137e0:	1a000205 	bne	13ffc <_nl_load_domain+0x13a8>
   137e4:	e51b30c8 	ldr	r3, [fp, #-200]	; 0xffffff38
   137e8:	e3530000 	cmp	r3, #0
   137ec:	1a000200 	bne	13ff4 <_nl_load_domain+0x13a0>
   137f0:	e51b30cc 	ldr	r3, [fp, #-204]	; 0xffffff34
   137f4:	e3530000 	cmp	r3, #0
   137f8:	1a0001fb 	bne	13fec <_nl_load_domain+0x1398>
   137fc:	e51b30d0 	ldr	r3, [fp, #-208]	; 0xffffff30
   13800:	e3530000 	cmp	r3, #0
   13804:	1a0001f6 	bne	13fe4 <_nl_load_domain+0x1390>
   13808:	e3580000 	cmp	r8, #0
   1380c:	1a000204 	bne	14024 <_nl_load_domain+0x13d0>
   13810:	e3560000 	cmp	r6, #0
   13814:	0a00015a 	beq	13d84 <_nl_load_domain+0x1130>
   13818:	e59f2358 	ldr	r2, [pc, #856]	; 13b78 <_nl_load_domain+0xf24>
   1381c:	eafffe26 	b	130bc <_nl_load_domain+0x468>
   13820:	e5d32005 	ldrb	r2, [r3, #5]
   13824:	e3520045 	cmp	r2, #69	; 0x45
   13828:	13a02000 	movne	r2, #0
   1382c:	1afffe22 	bne	130bc <_nl_load_domain+0x468>
   13830:	e5d32006 	ldrb	r2, [r3, #6]
   13834:	e3520041 	cmp	r2, #65	; 0x41
   13838:	13a02000 	movne	r2, #0
   1383c:	1afffe1e 	bne	130bc <_nl_load_domain+0x468>
   13840:	e5d32007 	ldrb	r2, [r3, #7]
   13844:	e3520053 	cmp	r2, #83	; 0x53
   13848:	13a02000 	movne	r2, #0
   1384c:	1afffe1a 	bne	130bc <_nl_load_domain+0x468>
   13850:	e5d32008 	ldrb	r2, [r3, #8]
   13854:	e3520054 	cmp	r2, #84	; 0x54
   13858:	13a02000 	movne	r2, #0
   1385c:	1afffe16 	bne	130bc <_nl_load_domain+0x468>
   13860:	e5d32009 	ldrb	r2, [r3, #9]
   13864:	e3520038 	cmp	r2, #56	; 0x38
   13868:	0a0001a4 	beq	13f00 <_nl_load_domain+0x12ac>
   1386c:	e3520031 	cmp	r2, #49	; 0x31
   13870:	0a000189 	beq	13e9c <_nl_load_domain+0x1248>
   13874:	e3520033 	cmp	r2, #51	; 0x33
   13878:	0a00016e 	beq	13e38 <_nl_load_domain+0x11e4>
   1387c:	e3520036 	cmp	r2, #54	; 0x36
   13880:	13a02000 	movne	r2, #0
   13884:	1afffe0c 	bne	130bc <_nl_load_domain+0x468>
   13888:	e5d3200a 	ldrb	r2, [r3, #10]
   1388c:	e3520034 	cmp	r2, #52	; 0x34
   13890:	13a02000 	movne	r2, #0
   13894:	1afffe08 	bne	130bc <_nl_load_domain+0x468>
   13898:	e5d3300b 	ldrb	r3, [r3, #11]
   1389c:	e3530000 	cmp	r3, #0
   138a0:	1a000162 	bne	13e30 <_nl_load_domain+0x11dc>
   138a4:	e51b30c4 	ldr	r3, [fp, #-196]	; 0xffffff3c
   138a8:	e3530000 	cmp	r3, #0
   138ac:	1a00015d 	bne	13e28 <_nl_load_domain+0x11d4>
   138b0:	e51b30c8 	ldr	r3, [fp, #-200]	; 0xffffff38
   138b4:	e3530000 	cmp	r3, #0
   138b8:	1a000158 	bne	13e20 <_nl_load_domain+0x11cc>
   138bc:	e51b30cc 	ldr	r3, [fp, #-204]	; 0xffffff34
   138c0:	e3530000 	cmp	r3, #0
   138c4:	1a000153 	bne	13e18 <_nl_load_domain+0x11c4>
   138c8:	e51b30d0 	ldr	r3, [fp, #-208]	; 0xffffff30
   138cc:	e3530000 	cmp	r3, #0
   138d0:	1a00014e 	bne	13e10 <_nl_load_domain+0x11bc>
   138d4:	e3580000 	cmp	r8, #0
   138d8:	1a00014a 	bne	13e08 <_nl_load_domain+0x11b4>
   138dc:	e3560000 	cmp	r6, #0
   138e0:	0a000127 	beq	13d84 <_nl_load_domain+0x1130>
   138e4:	e59f228c 	ldr	r2, [pc, #652]	; 13b78 <_nl_load_domain+0xf24>
   138e8:	eafffdf3 	b	130bc <_nl_load_domain+0x468>
   138ec:	e51b20b8 	ldr	r2, [fp, #-184]	; 0xffffff48
   138f0:	e51b30c8 	ldr	r3, [fp, #-200]	; 0xffffff38
   138f4:	e0830202 	add	r0, r3, r2, lsl #4
   138f8:	eb003adb 	bl	2246c <__libc_malloc>
   138fc:	e2503000 	subs	r3, r0, #0
   13900:	e50b30c8 	str	r3, [fp, #-200]	; 0xffffff38
   13904:	0afffe81 	beq	13310 <_nl_load_domain+0x6bc>
   13908:	e51b20b8 	ldr	r2, [fp, #-184]	; 0xffffff48
   1390c:	e51b30c8 	ldr	r3, [fp, #-200]	; 0xffffff38
   13910:	e51b00dc 	ldr	r0, [fp, #-220]	; 0xffffff24
   13914:	e083a202 	add	sl, r3, r2, lsl #4
   13918:	e08a7000 	add	r7, sl, r0
   1391c:	e50ba0e8 	str	sl, [fp, #-232]	; 0xffffff18
   13920:	e51ba0bc 	ldr	sl, [fp, #-188]	; 0xffffff44
   13924:	e3a01000 	mov	r1, #0
   13928:	e5853010 	str	r3, [r5, #16]
   1392c:	e0833182 	add	r3, r3, r2, lsl #3
   13930:	e50b10c0 	str	r1, [fp, #-192]	; 0xffffff40
   13934:	e50b10cc 	str	r1, [fp, #-204]	; 0xffffff34
   13938:	e50b30dc 	str	r3, [fp, #-220]	; 0xffffff24
   1393c:	e50b90ac 	str	r9, [fp, #-172]	; 0xffffff54
   13940:	e50b50d8 	str	r5, [fp, #-216]	; 0xffffff28
   13944:	e50b80ec 	str	r8, [fp, #-236]	; 0xffffff14
   13948:	e51b30d8 	ldr	r3, [fp, #-216]	; 0xffffff28
   1394c:	e51b10d0 	ldr	r1, [fp, #-208]	; 0xffffff30
   13950:	e51bc0ac 	ldr	ip, [fp, #-172]	; 0xffffff54
   13954:	e593900c 	ldr	r9, [r3, #12]
   13958:	e3a00000 	mov	r0, #0
   1395c:	e3590000 	cmp	r9, #0
   13960:	0a000072 	beq	13b30 <_nl_load_domain+0xedc>
   13964:	e3500000 	cmp	r0, #0
   13968:	051b30d4 	ldreq	r3, [fp, #-212]	; 0xffffff2c
   1396c:	15913000 	ldrne	r3, [r1]
   13970:	05933000 	ldreq	r3, [r3]
   13974:	e6bf2f33 	rev	r2, r3
   13978:	e08c2002 	add	r2, ip, r2
   1397c:	e5923008 	ldr	r3, [r2, #8]
   13980:	e2933001 	adds	r3, r3, #1
   13984:	13a03001 	movne	r3, #1
   13988:	e3530000 	cmp	r3, #0
   1398c:	0a00000a 	beq	139bc <_nl_load_domain+0xd68>
   13990:	e2822004 	add	r2, r2, #4
   13994:	ea000003 	b	139a8 <_nl_load_domain+0xd54>
   13998:	e79a3103 	ldr	r3, [sl, r3, lsl #2]
   1399c:	e3530000 	cmp	r3, #0
   139a0:	0a00000c 	beq	139d8 <_nl_load_domain+0xd84>
   139a4:	e2822008 	add	r2, r2, #8
   139a8:	e3590000 	cmp	r9, #0
   139ac:	e5923004 	ldr	r3, [r2, #4]
   139b0:	16bf3f33 	revne	r3, r3
   139b4:	e3730001 	cmn	r3, #1
   139b8:	1afffff6 	bne	13998 <_nl_load_domain+0xd44>
   139bc:	e3500001 	cmp	r0, #1
   139c0:	0a000078 	beq	13ba8 <_nl_load_domain+0xf54>
   139c4:	e3a00001 	mov	r0, #1
   139c8:	eaffffe3 	b	1395c <_nl_load_domain+0xd08>
   139cc:	e51b30c0 	ldr	r3, [fp, #-192]	; 0xffffff40
   139d0:	e2833001 	add	r3, r3, #1
   139d4:	e50b30c0 	str	r3, [fp, #-192]	; 0xffffff40
   139d8:	e51b30cc 	ldr	r3, [fp, #-204]	; 0xffffff34
   139dc:	e51b20b0 	ldr	r2, [fp, #-176]	; 0xffffff50
   139e0:	e2833001 	add	r3, r3, #1
   139e4:	e50b30cc 	str	r3, [fp, #-204]	; 0xffffff34
   139e8:	e1520003 	cmp	r2, r3
   139ec:	e51b30d4 	ldr	r3, [fp, #-212]	; 0xffffff2c
   139f0:	e2833004 	add	r3, r3, #4
   139f4:	e50b30d4 	str	r3, [fp, #-212]	; 0xffffff2c
   139f8:	e51b30d0 	ldr	r3, [fp, #-208]	; 0xffffff30
   139fc:	e2833004 	add	r3, r3, #4
   13a00:	e50b30d0 	str	r3, [fp, #-208]	; 0xffffff30
   13a04:	8affffcf 	bhi	13948 <_nl_load_domain+0xcf4>
   13a08:	e51b30c0 	ldr	r3, [fp, #-192]	; 0xffffff40
   13a0c:	e51b20b8 	ldr	r2, [fp, #-184]	; 0xffffff48
   13a10:	e51b90ac 	ldr	r9, [fp, #-172]	; 0xffffff54
   13a14:	e1530002 	cmp	r3, r2
   13a18:	e51b50d8 	ldr	r5, [fp, #-216]	; 0xffffff28
   13a1c:	e51ba0e8 	ldr	sl, [fp, #-232]	; 0xffffff18
   13a20:	e51b80ec 	ldr	r8, [fp, #-236]	; 0xffffff14
   13a24:	1a0000d6 	bne	13d84 <_nl_load_domain+0x1130>
   13a28:	e595202c 	ldr	r2, [r5, #44]	; 0x2c
   13a2c:	e3520000 	cmp	r2, #0
   13a30:	0a00000c 	beq	13a68 <_nl_load_domain+0xe14>
   13a34:	e595c034 	ldr	ip, [r5, #52]	; 0x34
   13a38:	e5950030 	ldr	r0, [r5, #48]	; 0x30
   13a3c:	e51b609c 	ldr	r6, [fp, #-156]	; 0xffffff64
   13a40:	e08a2102 	add	r2, sl, r2, lsl #2
   13a44:	e1a0300a 	mov	r3, sl
   13a48:	e06a1003 	rsb	r1, sl, r3
   13a4c:	e35c0000 	cmp	ip, #0
   13a50:	e7901001 	ldr	r1, [r0, r1]
   13a54:	16bf1f31 	revne	r1, r1
   13a58:	e4831004 	str	r1, [r3], #4
   13a5c:	e1530002 	cmp	r3, r2
   13a60:	1afffff8 	bne	13a48 <_nl_load_domain+0xdf4>
   13a64:	e50b609c 	str	r6, [fp, #-156]	; 0xffffff64
   13a68:	e51b30c8 	ldr	r3, [fp, #-200]	; 0xffffff38
   13a6c:	e3a02000 	mov	r2, #0
   13a70:	e1a06005 	mov	r6, r5
   13a74:	e50b80b4 	str	r8, [fp, #-180]	; 0xffffff4c
   13a78:	e1a05002 	mov	r5, r2
   13a7c:	e1a08003 	mov	r8, r3
   13a80:	e50b90b0 	str	r9, [fp, #-176]	; 0xffffff50
   13a84:	e5980004 	ldr	r0, [r8, #4]
   13a88:	eb0007fc 	bl	15a80 <__hash_string>
   13a8c:	e596902c 	ldr	r9, [r6, #44]	; 0x2c
   13a90:	e1a01009 	mov	r1, r9
   13a94:	e50b00ac 	str	r0, [fp, #-172]	; 0xffffff54
   13a98:	eb016cbe 	bl	6ed98 <__aeabi_uidivmod>
   13a9c:	e51b20ac 	ldr	r2, [fp, #-172]	; 0xffffff54
   13aa0:	e1a00002 	mov	r0, r2
   13aa4:	e1a07001 	mov	r7, r1
   13aa8:	e2491002 	sub	r1, r9, #2
   13aac:	eb016cb9 	bl	6ed98 <__aeabi_uidivmod>
   13ab0:	e2811001 	add	r1, r1, #1
   13ab4:	e0610009 	rsb	r0, r1, r9
   13ab8:	e069e001 	rsb	lr, r9, r1
   13abc:	ea000002 	b	13acc <_nl_load_domain+0xe78>
   13ac0:	e1570000 	cmp	r7, r0
   13ac4:	2087700e 	addcs	r7, r7, lr
   13ac8:	30877001 	addcc	r7, r7, r1
   13acc:	e79a3107 	ldr	r3, [sl, r7, lsl #2]
   13ad0:	e08a2107 	add	r2, sl, r7, lsl #2
   13ad4:	e3530000 	cmp	r3, #0
   13ad8:	1afffff8 	bne	13ac0 <_nl_load_domain+0xe6c>
   13adc:	e5961014 	ldr	r1, [r6, #20]
   13ae0:	e51b00c0 	ldr	r0, [fp, #-192]	; 0xffffff40
   13ae4:	e2811001 	add	r1, r1, #1
   13ae8:	e0811005 	add	r1, r1, r5
   13aec:	e2855001 	add	r5, r5, #1
   13af0:	e1550000 	cmp	r5, r0
   13af4:	e2888008 	add	r8, r8, #8
   13af8:	e5821000 	str	r1, [r2]
   13afc:	1affffe0 	bne	13a84 <_nl_load_domain+0xe30>
   13b00:	e1a02005 	mov	r2, r5
   13b04:	e5862020 	str	r2, [r6, #32]
   13b08:	e51b20c8 	ldr	r2, [fp, #-200]	; 0xffffff38
   13b0c:	e51b90b0 	ldr	r9, [fp, #-176]	; 0xffffff50
   13b10:	e5862024 	str	r2, [r6, #36]	; 0x24
   13b14:	e51b20dc 	ldr	r2, [fp, #-220]	; 0xffffff24
   13b18:	e1a05006 	mov	r5, r6
   13b1c:	e51b80b4 	ldr	r8, [fp, #-180]	; 0xffffff4c
   13b20:	e5862028 	str	r2, [r6, #40]	; 0x28
   13b24:	e586a030 	str	sl, [r6, #48]	; 0x30
   13b28:	e5863034 	str	r3, [r6, #52]	; 0x34
   13b2c:	eafffdd5 	b	13288 <_nl_load_domain+0x634>
   13b30:	e3500000 	cmp	r0, #0
   13b34:	051b30d4 	ldreq	r3, [fp, #-212]	; 0xffffff2c
   13b38:	15912000 	ldrne	r2, [r1]
   13b3c:	05932000 	ldreq	r2, [r3]
   13b40:	e08c2002 	add	r2, ip, r2
   13b44:	e5923008 	ldr	r3, [r2, #8]
   13b48:	e2933001 	adds	r3, r3, #1
   13b4c:	13a03001 	movne	r3, #1
   13b50:	eaffff8c 	b	13988 <_nl_load_domain+0xd34>
   13b54:	00099694 	.word	0x00099694
   13b58:	950412de 	.word	0x950412de
   13b5c:	de120495 	.word	0xde120495
   13b60:	00085694 	.word	0x00085694
   13b64:	00000000 	.word	0x00000000
   13b68:	00071b28 	.word	0x00071b28
   13b6c:	00000000 	.word	0x00000000
   13b70:	00084378 	.word	0x00084378
   13b74:	00085264 	.word	0x00085264
   13b78:	00071b34 	.word	0x00071b34
   13b7c:	00071b40 	.word	0x00071b40
   13b80:	00071b3c 	.word	0x00071b3c
   13b84:	00071b38 	.word	0x00071b38
   13b88:	00071b30 	.word	0x00071b30
   13b8c:	00071b2c 	.word	0x00071b2c
   13b90:	000735fc 	.word	0x000735fc
   13b94:	00071b24 	.word	0x00071b24
   13b98:	00071b20 	.word	0x00071b20
   13b9c:	00073c10 	.word	0x00073c10
   13ba0:	00071b1c 	.word	0x00071b1c
   13ba4:	0008797c 	.word	0x0008797c
   13ba8:	e51b30c0 	ldr	r3, [fp, #-192]	; 0xffffff40
   13bac:	e3590000 	cmp	r9, #0
   13bb0:	e1a02183 	lsl	r2, r3, #3
   13bb4:	e51b30c8 	ldr	r3, [fp, #-200]	; 0xffffff38
   13bb8:	e0833002 	add	r3, r3, r2
   13bbc:	e50b30e4 	str	r3, [fp, #-228]	; 0xffffff1c
   13bc0:	e51b30dc 	ldr	r3, [fp, #-220]	; 0xffffff24
   13bc4:	e0833002 	add	r3, r3, r2
   13bc8:	e50b30e0 	str	r3, [fp, #-224]	; 0xffffff20
   13bcc:	e3a03000 	mov	r3, #0
   13bd0:	e50b30c4 	str	r3, [fp, #-196]	; 0xffffff3c
   13bd4:	e51b30c4 	ldr	r3, [fp, #-196]	; 0xffffff3c
   13bd8:	0a00001e 	beq	13c58 <_nl_load_domain+0x1004>
   13bdc:	e3530000 	cmp	r3, #0
   13be0:	051b30d4 	ldreq	r3, [fp, #-212]	; 0xffffff2c
   13be4:	151b30d0 	ldrne	r3, [fp, #-208]	; 0xffffff30
   13be8:	051b20e4 	ldreq	r2, [fp, #-228]	; 0xffffff1c
   13bec:	151b20e0 	ldrne	r2, [fp, #-224]	; 0xffffff20
   13bf0:	05933000 	ldreq	r3, [r3]
   13bf4:	15933000 	ldrne	r3, [r3]
   13bf8:	e50b20bc 	str	r2, [fp, #-188]	; 0xffffff44
   13bfc:	e51b20ac 	ldr	r2, [fp, #-172]	; 0xffffff54
   13c00:	e6bf3f33 	rev	r3, r3
   13c04:	e0825003 	add	r5, r2, r3
   13c08:	e7926003 	ldr	r6, [r2, r3]
   13c0c:	e5953008 	ldr	r3, [r5, #8]
   13c10:	e6bf6f36 	rev	r6, r6
   13c14:	e3730001 	cmn	r3, #1
   13c18:	e0826006 	add	r6, r2, r6
   13c1c:	1a00001d 	bne	13c98 <_nl_load_domain+0x1044>
   13c20:	e5953004 	ldr	r3, [r5, #4]
   13c24:	e6bf3f33 	rev	r3, r3
   13c28:	e51b20bc 	ldr	r2, [fp, #-188]	; 0xffffff44
   13c2c:	e8820048 	stm	r2, {r3, r6}
   13c30:	e51b30c4 	ldr	r3, [fp, #-196]	; 0xffffff3c
   13c34:	e3530001 	cmp	r3, #1
   13c38:	0affff63 	beq	139cc <_nl_load_domain+0xd78>
   13c3c:	e51b30d8 	ldr	r3, [fp, #-216]	; 0xffffff28
   13c40:	e593900c 	ldr	r9, [r3, #12]
   13c44:	e3a03001 	mov	r3, #1
   13c48:	e50b30c4 	str	r3, [fp, #-196]	; 0xffffff3c
   13c4c:	e3590000 	cmp	r9, #0
   13c50:	e51b30c4 	ldr	r3, [fp, #-196]	; 0xffffff3c
   13c54:	1affffe0 	bne	13bdc <_nl_load_domain+0xf88>
   13c58:	e3530000 	cmp	r3, #0
   13c5c:	051b30d4 	ldreq	r3, [fp, #-212]	; 0xffffff2c
   13c60:	151b30d0 	ldrne	r3, [fp, #-208]	; 0xffffff30
   13c64:	051b20e4 	ldreq	r2, [fp, #-228]	; 0xffffff1c
   13c68:	151b20e0 	ldrne	r2, [fp, #-224]	; 0xffffff20
   13c6c:	05933000 	ldreq	r3, [r3]
   13c70:	15933000 	ldrne	r3, [r3]
   13c74:	e50b20bc 	str	r2, [fp, #-188]	; 0xffffff44
   13c78:	e51b20ac 	ldr	r2, [fp, #-172]	; 0xffffff54
   13c7c:	e0825003 	add	r5, r2, r3
   13c80:	e7926003 	ldr	r6, [r2, r3]
   13c84:	e5953008 	ldr	r3, [r5, #8]
   13c88:	e0826006 	add	r6, r2, r6
   13c8c:	e3730001 	cmn	r3, #1
   13c90:	05953004 	ldreq	r3, [r5, #4]
   13c94:	0affffe3 	beq	13c28 <_nl_load_domain+0xfd4>
   13c98:	e51b30bc 	ldr	r3, [fp, #-188]	; 0xffffff44
   13c9c:	e285500c 	add	r5, r5, #12
   13ca0:	e5837004 	str	r7, [r3, #4]
   13ca4:	ea00000a 	b	13cd4 <_nl_load_domain+0x1080>
   13ca8:	e3780001 	cmn	r8, #1
   13cac:	e2855008 	add	r5, r5, #8
   13cb0:	0a000016 	beq	13d10 <_nl_load_domain+0x10bc>
   13cb4:	e79a8108 	ldr	r8, [sl, r8, lsl #2]
   13cb8:	e1a00008 	mov	r0, r8
   13cbc:	eb004357 	bl	24a20 <strlen>
   13cc0:	e1a01008 	mov	r1, r8
   13cc4:	e1a02000 	mov	r2, r0
   13cc8:	e1a00007 	mov	r0, r7
   13ccc:	e0877002 	add	r7, r7, r2
   13cd0:	eb004866 	bl	25e70 <memcpy>
   13cd4:	e3590000 	cmp	r9, #0
   13cd8:	e9150108 	ldmdb	r5, {r3, r8}
   13cdc:	16bf3f33 	revne	r3, r3
   13ce0:	16bf8f38 	revne	r8, r8
   13ce4:	e3530000 	cmp	r3, #0
   13ce8:	0affffee 	beq	13ca8 <_nl_load_domain+0x1054>
   13cec:	e1a00007 	mov	r0, r7
   13cf0:	e1a01006 	mov	r1, r6
   13cf4:	e1a02003 	mov	r2, r3
   13cf8:	e50b30b4 	str	r3, [fp, #-180]	; 0xffffff4c
   13cfc:	eb00485b 	bl	25e70 <memcpy>
   13d00:	e51b30b4 	ldr	r3, [fp, #-180]	; 0xffffff4c
   13d04:	e0877003 	add	r7, r7, r3
   13d08:	e0866003 	add	r6, r6, r3
   13d0c:	eaffffe5 	b	13ca8 <_nl_load_domain+0x1054>
   13d10:	e51b20bc 	ldr	r2, [fp, #-188]	; 0xffffff44
   13d14:	e5923004 	ldr	r3, [r2, #4]
   13d18:	e0633007 	rsb	r3, r3, r7
   13d1c:	e5823000 	str	r3, [r2]
   13d20:	eaffffc2 	b	13c30 <_nl_load_domain+0xfdc>
   13d24:	e3a02000 	mov	r2, #0
   13d28:	eafffce3 	b	130bc <_nl_load_domain+0x468>
   13d2c:	e3a02000 	mov	r2, #0
   13d30:	eafffce1 	b	130bc <_nl_load_domain+0x468>
   13d34:	e3a02000 	mov	r2, #0
   13d38:	eafffcdf 	b	130bc <_nl_load_domain+0x468>
   13d3c:	e3a02000 	mov	r2, #0
   13d40:	eafffcdd 	b	130bc <_nl_load_domain+0x468>
   13d44:	e51f21b4 	ldr	r2, [pc, #-436]	; 13b98 <_nl_load_domain+0xf44>
   13d48:	eafffcdb 	b	130bc <_nl_load_domain+0x468>
   13d4c:	e51f21b8 	ldr	r2, [pc, #-440]	; 13b9c <_nl_load_domain+0xf48>
   13d50:	eafffcd9 	b	130bc <_nl_load_domain+0x468>
   13d54:	e51f21bc 	ldr	r2, [pc, #-444]	; 13ba0 <_nl_load_domain+0xf4c>
   13d58:	eafffcd7 	b	130bc <_nl_load_domain+0x468>
   13d5c:	e51f21c0 	ldr	r2, [pc, #-448]	; 13ba4 <_nl_load_domain+0xf50>
   13d60:	eafffcd5 	b	130bc <_nl_load_domain+0x468>
   13d64:	e3a02000 	mov	r2, #0
   13d68:	eafffcd3 	b	130bc <_nl_load_domain+0x468>
   13d6c:	e51f21d0 	ldr	r2, [pc, #-464]	; 13ba4 <_nl_load_domain+0xf50>
   13d70:	eafffcd1 	b	130bc <_nl_load_domain+0x468>
   13d74:	e51f21f8 	ldr	r2, [pc, #-504]	; 13b84 <_nl_load_domain+0xf30>
   13d78:	eafffccf 	b	130bc <_nl_load_domain+0x468>
   13d7c:	e51f2200 	ldr	r2, [pc, #-512]	; 13b84 <_nl_load_domain+0xf30>
   13d80:	eafffccd 	b	130bc <_nl_load_domain+0x468>
   13d84:	eb00074d 	bl	15ac0 <abort>
   13d88:	e51f21fc 	ldr	r2, [pc, #-508]	; 13b94 <_nl_load_domain+0xf40>
   13d8c:	eafffcca 	b	130bc <_nl_load_domain+0x468>
   13d90:	e51f220c 	ldr	r2, [pc, #-524]	; 13b8c <_nl_load_domain+0xf38>
   13d94:	eafffcc8 	b	130bc <_nl_load_domain+0x468>
   13d98:	e51f2218 	ldr	r2, [pc, #-536]	; 13b88 <_nl_load_domain+0xf34>
   13d9c:	eafffcc6 	b	130bc <_nl_load_domain+0x468>
   13da0:	e51f222c 	ldr	r2, [pc, #-556]	; 13b7c <_nl_load_domain+0xf28>
   13da4:	eafffcc4 	b	130bc <_nl_load_domain+0x468>
   13da8:	e51f2230 	ldr	r2, [pc, #-560]	; 13b80 <_nl_load_domain+0xf2c>
   13dac:	eafffcc2 	b	130bc <_nl_load_domain+0x468>
   13db0:	e51f2220 	ldr	r2, [pc, #-544]	; 13b98 <_nl_load_domain+0xf44>
   13db4:	eafffcc0 	b	130bc <_nl_load_domain+0x468>
   13db8:	e51f2224 	ldr	r2, [pc, #-548]	; 13b9c <_nl_load_domain+0xf48>
   13dbc:	eafffcbe 	b	130bc <_nl_load_domain+0x468>
   13dc0:	e51f2228 	ldr	r2, [pc, #-552]	; 13ba0 <_nl_load_domain+0xf4c>
   13dc4:	eafffcbc 	b	130bc <_nl_load_domain+0x468>
   13dc8:	e51f222c 	ldr	r2, [pc, #-556]	; 13ba4 <_nl_load_domain+0xf50>
   13dcc:	eafffcba 	b	130bc <_nl_load_domain+0x468>
   13dd0:	e51f225c 	ldr	r2, [pc, #-604]	; 13b7c <_nl_load_domain+0xf28>
   13dd4:	eafffcb8 	b	130bc <_nl_load_domain+0x468>
   13dd8:	e51f2260 	ldr	r2, [pc, #-608]	; 13b80 <_nl_load_domain+0xf2c>
   13ddc:	eafffcb6 	b	130bc <_nl_load_domain+0x468>
   13de0:	e51f224c 	ldr	r2, [pc, #-588]	; 13b9c <_nl_load_domain+0xf48>
   13de4:	eafffcb4 	b	130bc <_nl_load_domain+0x468>
   13de8:	e51f2250 	ldr	r2, [pc, #-592]	; 13ba0 <_nl_load_domain+0xf4c>
   13dec:	eafffcb2 	b	130bc <_nl_load_domain+0x468>
   13df0:	e51f2264 	ldr	r2, [pc, #-612]	; 13b94 <_nl_load_domain+0xf40>
   13df4:	eafffcb0 	b	130bc <_nl_load_domain+0x468>
   13df8:	e51f2268 	ldr	r2, [pc, #-616]	; 13b98 <_nl_load_domain+0xf44>
   13dfc:	eafffcae 	b	130bc <_nl_load_domain+0x468>
   13e00:	e51f2274 	ldr	r2, [pc, #-628]	; 13b94 <_nl_load_domain+0xf40>
   13e04:	eafffcac 	b	130bc <_nl_load_domain+0x468>
   13e08:	e51f2284 	ldr	r2, [pc, #-644]	; 13b8c <_nl_load_domain+0xf38>
   13e0c:	eafffcaa 	b	130bc <_nl_load_domain+0x468>
   13e10:	e51f2290 	ldr	r2, [pc, #-656]	; 13b88 <_nl_load_domain+0xf34>
   13e14:	eafffca8 	b	130bc <_nl_load_domain+0x468>
   13e18:	e51f22a4 	ldr	r2, [pc, #-676]	; 13b7c <_nl_load_domain+0xf28>
   13e1c:	eafffca6 	b	130bc <_nl_load_domain+0x468>
   13e20:	e51f22a8 	ldr	r2, [pc, #-680]	; 13b80 <_nl_load_domain+0xf2c>
   13e24:	eafffca4 	b	130bc <_nl_load_domain+0x468>
   13e28:	e51f22ac 	ldr	r2, [pc, #-684]	; 13b84 <_nl_load_domain+0xf30>
   13e2c:	eafffca2 	b	130bc <_nl_load_domain+0x468>
   13e30:	e3a02000 	mov	r2, #0
   13e34:	eafffca0 	b	130bc <_nl_load_domain+0x468>
   13e38:	e5d3200a 	ldrb	r2, [r3, #10]
   13e3c:	e3520032 	cmp	r2, #50	; 0x32
   13e40:	13a02000 	movne	r2, #0
   13e44:	1afffc9c 	bne	130bc <_nl_load_domain+0x468>
   13e48:	e5d3300b 	ldrb	r3, [r3, #11]
   13e4c:	e3530000 	cmp	r3, #0
   13e50:	1a000061 	bne	13fdc <_nl_load_domain+0x1388>
   13e54:	e51b30c4 	ldr	r3, [fp, #-196]	; 0xffffff3c
   13e58:	e3530000 	cmp	r3, #0
   13e5c:	1a00005c 	bne	13fd4 <_nl_load_domain+0x1380>
   13e60:	e51b30c8 	ldr	r3, [fp, #-200]	; 0xffffff38
   13e64:	e3530000 	cmp	r3, #0
   13e68:	1a000057 	bne	13fcc <_nl_load_domain+0x1378>
   13e6c:	e51b30cc 	ldr	r3, [fp, #-204]	; 0xffffff34
   13e70:	e3530000 	cmp	r3, #0
   13e74:	1a000052 	bne	13fc4 <_nl_load_domain+0x1370>
   13e78:	e51b30d0 	ldr	r3, [fp, #-208]	; 0xffffff30
   13e7c:	e3530000 	cmp	r3, #0
   13e80:	1a00004d 	bne	13fbc <_nl_load_domain+0x1368>
   13e84:	e3580000 	cmp	r8, #0
   13e88:	1a000049 	bne	13fb4 <_nl_load_domain+0x1360>
   13e8c:	e3560000 	cmp	r6, #0
   13e90:	0affffbb 	beq	13d84 <_nl_load_domain+0x1130>
   13e94:	e51f230c 	ldr	r2, [pc, #-780]	; 13b90 <_nl_load_domain+0xf3c>
   13e98:	eafffc87 	b	130bc <_nl_load_domain+0x468>
   13e9c:	e5d3200a 	ldrb	r2, [r3, #10]
   13ea0:	e3520036 	cmp	r2, #54	; 0x36
   13ea4:	13a02000 	movne	r2, #0
   13ea8:	1afffc83 	bne	130bc <_nl_load_domain+0x468>
   13eac:	e5d3300b 	ldrb	r3, [r3, #11]
   13eb0:	e3530000 	cmp	r3, #0
   13eb4:	1a00003c 	bne	13fac <_nl_load_domain+0x1358>
   13eb8:	e51b30c4 	ldr	r3, [fp, #-196]	; 0xffffff3c
   13ebc:	e3530000 	cmp	r3, #0
   13ec0:	1a000037 	bne	13fa4 <_nl_load_domain+0x1350>
   13ec4:	e51b30c8 	ldr	r3, [fp, #-200]	; 0xffffff38
   13ec8:	e3530000 	cmp	r3, #0
   13ecc:	1a000026 	bne	13f6c <_nl_load_domain+0x1318>
   13ed0:	e51b30cc 	ldr	r3, [fp, #-204]	; 0xffffff34
   13ed4:	e3530000 	cmp	r3, #0
   13ed8:	1a000021 	bne	13f64 <_nl_load_domain+0x1310>
   13edc:	e51b30d0 	ldr	r3, [fp, #-208]	; 0xffffff30
   13ee0:	e3530000 	cmp	r3, #0
   13ee4:	1a00001c 	bne	13f5c <_nl_load_domain+0x1308>
   13ee8:	e3580000 	cmp	r8, #0
   13eec:	1a000018 	bne	13f54 <_nl_load_domain+0x1300>
   13ef0:	e3560000 	cmp	r6, #0
   13ef4:	0affffa2 	beq	13d84 <_nl_load_domain+0x1130>
   13ef8:	e51f2370 	ldr	r2, [pc, #-880]	; 13b90 <_nl_load_domain+0xf3c>
   13efc:	eafffc6e 	b	130bc <_nl_load_domain+0x468>
   13f00:	e5d3300a 	ldrb	r3, [r3, #10]
   13f04:	e3530000 	cmp	r3, #0
   13f08:	1a000023 	bne	13f9c <_nl_load_domain+0x1348>
   13f0c:	e51b30c4 	ldr	r3, [fp, #-196]	; 0xffffff3c
   13f10:	e3530000 	cmp	r3, #0
   13f14:	1a00001e 	bne	13f94 <_nl_load_domain+0x1340>
   13f18:	e51b30c8 	ldr	r3, [fp, #-200]	; 0xffffff38
   13f1c:	e3530000 	cmp	r3, #0
   13f20:	1a000019 	bne	13f8c <_nl_load_domain+0x1338>
   13f24:	e51b30cc 	ldr	r3, [fp, #-204]	; 0xffffff34
   13f28:	e3530000 	cmp	r3, #0
   13f2c:	1a000014 	bne	13f84 <_nl_load_domain+0x1330>
   13f30:	e51b30d0 	ldr	r3, [fp, #-208]	; 0xffffff30
   13f34:	e3530000 	cmp	r3, #0
   13f38:	1a00000f 	bne	13f7c <_nl_load_domain+0x1328>
   13f3c:	e3580000 	cmp	r8, #0
   13f40:	1a00000b 	bne	13f74 <_nl_load_domain+0x1320>
   13f44:	e3560000 	cmp	r6, #0
   13f48:	0affff8d 	beq	13d84 <_nl_load_domain+0x1130>
   13f4c:	e51f23c4 	ldr	r2, [pc, #-964]	; 13b90 <_nl_load_domain+0xf3c>
   13f50:	eafffc59 	b	130bc <_nl_load_domain+0x468>
   13f54:	e51f23c8 	ldr	r2, [pc, #-968]	; 13b94 <_nl_load_domain+0xf40>
   13f58:	eafffc57 	b	130bc <_nl_load_domain+0x468>
   13f5c:	e51f23cc 	ldr	r2, [pc, #-972]	; 13b98 <_nl_load_domain+0xf44>
   13f60:	eafffc55 	b	130bc <_nl_load_domain+0x468>
   13f64:	e51f23d0 	ldr	r2, [pc, #-976]	; 13b9c <_nl_load_domain+0xf48>
   13f68:	eafffc53 	b	130bc <_nl_load_domain+0x468>
   13f6c:	e51f23d4 	ldr	r2, [pc, #-980]	; 13ba0 <_nl_load_domain+0xf4c>
   13f70:	eafffc51 	b	130bc <_nl_load_domain+0x468>
   13f74:	e51f23e8 	ldr	r2, [pc, #-1000]	; 13b94 <_nl_load_domain+0xf40>
   13f78:	eafffc4f 	b	130bc <_nl_load_domain+0x468>
   13f7c:	e51f23ec 	ldr	r2, [pc, #-1004]	; 13b98 <_nl_load_domain+0xf44>
   13f80:	eafffc4d 	b	130bc <_nl_load_domain+0x468>
   13f84:	e51f23f0 	ldr	r2, [pc, #-1008]	; 13b9c <_nl_load_domain+0xf48>
   13f88:	eafffc4b 	b	130bc <_nl_load_domain+0x468>
   13f8c:	e51f23f4 	ldr	r2, [pc, #-1012]	; 13ba0 <_nl_load_domain+0xf4c>
   13f90:	eafffc49 	b	130bc <_nl_load_domain+0x468>
   13f94:	e51f23f8 	ldr	r2, [pc, #-1016]	; 13ba4 <_nl_load_domain+0xf50>
   13f98:	eafffc47 	b	130bc <_nl_load_domain+0x468>
   13f9c:	e3a02000 	mov	r2, #0
   13fa0:	eafffc45 	b	130bc <_nl_load_domain+0x468>
   13fa4:	e51f2408 	ldr	r2, [pc, #-1032]	; 13ba4 <_nl_load_domain+0xf50>
   13fa8:	eafffc43 	b	130bc <_nl_load_domain+0x468>
   13fac:	e3a02000 	mov	r2, #0
   13fb0:	eafffc41 	b	130bc <_nl_load_domain+0x468>
   13fb4:	e51f2428 	ldr	r2, [pc, #-1064]	; 13b94 <_nl_load_domain+0xf40>
   13fb8:	eafffc3f 	b	130bc <_nl_load_domain+0x468>
   13fbc:	e51f242c 	ldr	r2, [pc, #-1068]	; 13b98 <_nl_load_domain+0xf44>
   13fc0:	eafffc3d 	b	130bc <_nl_load_domain+0x468>
   13fc4:	e51f2430 	ldr	r2, [pc, #-1072]	; 13b9c <_nl_load_domain+0xf48>
   13fc8:	eafffc3b 	b	130bc <_nl_load_domain+0x468>
   13fcc:	e51f2434 	ldr	r2, [pc, #-1076]	; 13ba0 <_nl_load_domain+0xf4c>
   13fd0:	eafffc39 	b	130bc <_nl_load_domain+0x468>
   13fd4:	e51f2438 	ldr	r2, [pc, #-1080]	; 13ba4 <_nl_load_domain+0xf50>
   13fd8:	eafffc37 	b	130bc <_nl_load_domain+0x468>
   13fdc:	e3a02000 	mov	r2, #0
   13fe0:	eafffc35 	b	130bc <_nl_load_domain+0x468>
   13fe4:	e51f2464 	ldr	r2, [pc, #-1124]	; 13b88 <_nl_load_domain+0xf34>
   13fe8:	eafffc33 	b	130bc <_nl_load_domain+0x468>
   13fec:	e51f2478 	ldr	r2, [pc, #-1144]	; 13b7c <_nl_load_domain+0xf28>
   13ff0:	eafffc31 	b	130bc <_nl_load_domain+0x468>
   13ff4:	e51f247c 	ldr	r2, [pc, #-1148]	; 13b80 <_nl_load_domain+0xf2c>
   13ff8:	eafffc2f 	b	130bc <_nl_load_domain+0x468>
   13ffc:	e51f2480 	ldr	r2, [pc, #-1152]	; 13b84 <_nl_load_domain+0xf30>
   14000:	eafffc2d 	b	130bc <_nl_load_domain+0x468>
   14004:	e51f2478 	ldr	r2, [pc, #-1144]	; 13b94 <_nl_load_domain+0xf40>
   14008:	eafffc2b 	b	130bc <_nl_load_domain+0x468>
   1400c:	e51f247c 	ldr	r2, [pc, #-1148]	; 13b98 <_nl_load_domain+0xf44>
   14010:	eafffc29 	b	130bc <_nl_load_domain+0x468>
   14014:	e51f2490 	ldr	r2, [pc, #-1168]	; 13b8c <_nl_load_domain+0xf38>
   14018:	eafffc27 	b	130bc <_nl_load_domain+0x468>
   1401c:	e51f249c 	ldr	r2, [pc, #-1180]	; 13b88 <_nl_load_domain+0xf34>
   14020:	eafffc25 	b	130bc <_nl_load_domain+0x468>
   14024:	e51f24a0 	ldr	r2, [pc, #-1184]	; 13b8c <_nl_load_domain+0xf38>
   14028:	eafffc23 	b	130bc <_nl_load_domain+0x468>
   1402c:	e51f2490 	ldr	r2, [pc, #-1168]	; 13ba4 <_nl_load_domain+0xf50>
   14030:	eafffc21 	b	130bc <_nl_load_domain+0x468>
   14034:	e51f24a0 	ldr	r2, [pc, #-1184]	; 13b9c <_nl_load_domain+0xf48>
   14038:	eafffc1f 	b	130bc <_nl_load_domain+0x468>
   1403c:	e51f24a4 	ldr	r2, [pc, #-1188]	; 13ba0 <_nl_load_domain+0xf4c>
   14040:	eafffc1d 	b	130bc <_nl_load_domain+0x468>
   14044:	e3a02000 	mov	r2, #0
   14048:	eafffc1b 	b	130bc <_nl_load_domain+0x468>
   1404c:	e5d32009 	ldrb	r2, [r3, #9]
   14050:	e3520032 	cmp	r2, #50	; 0x32
   14054:	13a02000 	movne	r2, #0
   14058:	1afffc17 	bne	130bc <_nl_load_domain+0x468>
   1405c:	e5d3300a 	ldrb	r3, [r3, #10]
   14060:	e3530000 	cmp	r3, #0
   14064:	1a000061 	bne	141f0 <_nl_load_domain+0x159c>
   14068:	e51b30c4 	ldr	r3, [fp, #-196]	; 0xffffff3c
   1406c:	e3530000 	cmp	r3, #0
   14070:	1a00005c 	bne	141e8 <_nl_load_domain+0x1594>
   14074:	e51b30c8 	ldr	r3, [fp, #-200]	; 0xffffff38
   14078:	e3530000 	cmp	r3, #0
   1407c:	1a000057 	bne	141e0 <_nl_load_domain+0x158c>
   14080:	e51b30cc 	ldr	r3, [fp, #-204]	; 0xffffff34
   14084:	e3530000 	cmp	r3, #0
   14088:	1a000052 	bne	141d8 <_nl_load_domain+0x1584>
   1408c:	e51b30d0 	ldr	r3, [fp, #-208]	; 0xffffff30
   14090:	e3530000 	cmp	r3, #0
   14094:	1a00004d 	bne	141d0 <_nl_load_domain+0x157c>
   14098:	e3580000 	cmp	r8, #0
   1409c:	1a000049 	bne	141c8 <_nl_load_domain+0x1574>
   140a0:	e3560000 	cmp	r6, #0
   140a4:	0affff36 	beq	13d84 <_nl_load_domain+0x1130>
   140a8:	e51f2520 	ldr	r2, [pc, #-1312]	; 13b90 <_nl_load_domain+0xf3c>
   140ac:	eafffc02 	b	130bc <_nl_load_domain+0x468>
   140b0:	e5d32009 	ldrb	r2, [r3, #9]
   140b4:	e3520036 	cmp	r2, #54	; 0x36
   140b8:	13a02000 	movne	r2, #0
   140bc:	1afffbfe 	bne	130bc <_nl_load_domain+0x468>
   140c0:	e5d3300a 	ldrb	r3, [r3, #10]
   140c4:	e3530000 	cmp	r3, #0
   140c8:	1a00003c 	bne	141c0 <_nl_load_domain+0x156c>
   140cc:	e51b30c4 	ldr	r3, [fp, #-196]	; 0xffffff3c
   140d0:	e3530000 	cmp	r3, #0
   140d4:	1a000037 	bne	141b8 <_nl_load_domain+0x1564>
   140d8:	e51b30c8 	ldr	r3, [fp, #-200]	; 0xffffff38
   140dc:	e3530000 	cmp	r3, #0
   140e0:	1a000026 	bne	14180 <_nl_load_domain+0x152c>
   140e4:	e51b30cc 	ldr	r3, [fp, #-204]	; 0xffffff34
   140e8:	e3530000 	cmp	r3, #0
   140ec:	1a000021 	bne	14178 <_nl_load_domain+0x1524>
   140f0:	e51b30d0 	ldr	r3, [fp, #-208]	; 0xffffff30
   140f4:	e3530000 	cmp	r3, #0
   140f8:	1a00001c 	bne	14170 <_nl_load_domain+0x151c>
   140fc:	e3580000 	cmp	r8, #0
   14100:	1a000018 	bne	14168 <_nl_load_domain+0x1514>
   14104:	e3560000 	cmp	r6, #0
   14108:	0affff1d 	beq	13d84 <_nl_load_domain+0x1130>
   1410c:	e51f2584 	ldr	r2, [pc, #-1412]	; 13b90 <_nl_load_domain+0xf3c>
   14110:	eafffbe9 	b	130bc <_nl_load_domain+0x468>
   14114:	e5d33009 	ldrb	r3, [r3, #9]
   14118:	e3530000 	cmp	r3, #0
   1411c:	1a000023 	bne	141b0 <_nl_load_domain+0x155c>
   14120:	e51b30c4 	ldr	r3, [fp, #-196]	; 0xffffff3c
   14124:	e3530000 	cmp	r3, #0
   14128:	1a00001e 	bne	141a8 <_nl_load_domain+0x1554>
   1412c:	e51b30c8 	ldr	r3, [fp, #-200]	; 0xffffff38
   14130:	e3530000 	cmp	r3, #0
   14134:	1a000019 	bne	141a0 <_nl_load_domain+0x154c>
   14138:	e51b30cc 	ldr	r3, [fp, #-204]	; 0xffffff34
   1413c:	e3530000 	cmp	r3, #0
   14140:	1a000014 	bne	14198 <_nl_load_domain+0x1544>
   14144:	e51b30d0 	ldr	r3, [fp, #-208]	; 0xffffff30
   14148:	e3530000 	cmp	r3, #0
   1414c:	1a00000f 	bne	14190 <_nl_load_domain+0x153c>
   14150:	e3580000 	cmp	r8, #0
   14154:	1a00000b 	bne	14188 <_nl_load_domain+0x1534>
   14158:	e3560000 	cmp	r6, #0
   1415c:	0affff08 	beq	13d84 <_nl_load_domain+0x1130>
   14160:	e51f25d8 	ldr	r2, [pc, #-1496]	; 13b90 <_nl_load_domain+0xf3c>
   14164:	eafffbd4 	b	130bc <_nl_load_domain+0x468>
   14168:	e51f25dc 	ldr	r2, [pc, #-1500]	; 13b94 <_nl_load_domain+0xf40>
   1416c:	eafffbd2 	b	130bc <_nl_load_domain+0x468>
   14170:	e51f25e0 	ldr	r2, [pc, #-1504]	; 13b98 <_nl_load_domain+0xf44>
   14174:	eafffbd0 	b	130bc <_nl_load_domain+0x468>
   14178:	e51f25e4 	ldr	r2, [pc, #-1508]	; 13b9c <_nl_load_domain+0xf48>
   1417c:	eafffbce 	b	130bc <_nl_load_domain+0x468>
   14180:	e51f25e8 	ldr	r2, [pc, #-1512]	; 13ba0 <_nl_load_domain+0xf4c>
   14184:	eafffbcc 	b	130bc <_nl_load_domain+0x468>
   14188:	e51f25fc 	ldr	r2, [pc, #-1532]	; 13b94 <_nl_load_domain+0xf40>
   1418c:	eafffbca 	b	130bc <_nl_load_domain+0x468>
   14190:	e51f2600 	ldr	r2, [pc, #-1536]	; 13b98 <_nl_load_domain+0xf44>
   14194:	eafffbc8 	b	130bc <_nl_load_domain+0x468>
   14198:	e51f2604 	ldr	r2, [pc, #-1540]	; 13b9c <_nl_load_domain+0xf48>
   1419c:	eafffbc6 	b	130bc <_nl_load_domain+0x468>
   141a0:	e51f2608 	ldr	r2, [pc, #-1544]	; 13ba0 <_nl_load_domain+0xf4c>
   141a4:	eafffbc4 	b	130bc <_nl_load_domain+0x468>
   141a8:	e51f260c 	ldr	r2, [pc, #-1548]	; 13ba4 <_nl_load_domain+0xf50>
   141ac:	eafffbc2 	b	130bc <_nl_load_domain+0x468>
   141b0:	e3a02000 	mov	r2, #0
   141b4:	eafffbc0 	b	130bc <_nl_load_domain+0x468>
   141b8:	e51f261c 	ldr	r2, [pc, #-1564]	; 13ba4 <_nl_load_domain+0xf50>
   141bc:	eafffbbe 	b	130bc <_nl_load_domain+0x468>
   141c0:	e3a02000 	mov	r2, #0
   141c4:	eafffbbc 	b	130bc <_nl_load_domain+0x468>
   141c8:	e51f263c 	ldr	r2, [pc, #-1596]	; 13b94 <_nl_load_domain+0xf40>
   141cc:	eafffbba 	b	130bc <_nl_load_domain+0x468>
   141d0:	e51f2640 	ldr	r2, [pc, #-1600]	; 13b98 <_nl_load_domain+0xf44>
   141d4:	eafffbb8 	b	130bc <_nl_load_domain+0x468>
   141d8:	e51f2644 	ldr	r2, [pc, #-1604]	; 13b9c <_nl_load_domain+0xf48>
   141dc:	eafffbb6 	b	130bc <_nl_load_domain+0x468>
   141e0:	e51f2648 	ldr	r2, [pc, #-1608]	; 13ba0 <_nl_load_domain+0xf4c>
   141e4:	eafffbb4 	b	130bc <_nl_load_domain+0x468>
   141e8:	e51f264c 	ldr	r2, [pc, #-1612]	; 13ba4 <_nl_load_domain+0xf50>
   141ec:	eafffbb2 	b	130bc <_nl_load_domain+0x468>
   141f0:	e3a02000 	mov	r2, #0
   141f4:	eafffbb0 	b	130bc <_nl_load_domain+0x468>

000141f8 <alias_compare>:
   141f8:	e5900000 	ldr	r0, [r0]
   141fc:	e5911000 	ldr	r1, [r1]
   14200:	e59f2000 	ldr	r2, [pc]	; 14208 <alias_compare+0x10>
   14204:	ea004706 	b	25e24 <__strcasecmp_l>
   14208:	000813ec 	.word	0x000813ec

0001420c <read_alias_file>:
   1420c:	e281301c 	add	r3, r1, #28
   14210:	e92d4ff0 	push	{r4, r5, r6, r7, r8, r9, sl, fp, lr}
   14214:	e3c33007 	bic	r3, r3, #7
   14218:	e28db020 	add	fp, sp, #32
   1421c:	e24ddf71 	sub	sp, sp, #452	; 0x1c4
   14220:	e04dd003 	sub	sp, sp, r3
   14224:	e1a02001 	mov	r2, r1
   14228:	e1a01000 	mov	r1, r0
   1422c:	e1a0000d 	mov	r0, sp
   14230:	eb0046f6 	bl	25e10 <__mempcpy>
   14234:	e59f3434 	ldr	r3, [pc, #1076]	; 14670 <read_alias_file+0x464>
   14238:	e1a0c000 	mov	ip, r0
   1423c:	e8b30007 	ldm	r3!, {r0, r1, r2}
   14240:	e1d330b0 	ldrh	r3, [r3]
   14244:	e58c0000 	str	r0, [ip]
   14248:	e58c1004 	str	r1, [ip, #4]
   1424c:	e1a0000d 	mov	r0, sp
   14250:	e1cc30bc 	strh	r3, [ip, #12]
   14254:	e58c2008 	str	r2, [ip, #8]
   14258:	e59f1414 	ldr	r1, [pc, #1044]	; 14674 <read_alias_file+0x468>
   1425c:	eb000cad 	bl	17518 <_IO_new_fopen>
   14260:	e250a000 	subs	sl, r0, #0
   14264:	0a0000fa 	beq	14654 <read_alias_file+0x448>
   14268:	e59a3000 	ldr	r3, [sl]
   1426c:	e3832902 	orr	r2, r3, #32768	; 0x8000
   14270:	e2133010 	ands	r3, r3, #16
   14274:	e58a2000 	str	r2, [sl]
   14278:	1a0000f8 	bne	14660 <read_alias_file+0x454>
   1427c:	e59f93f4 	ldr	r9, [pc, #1012]	; 14678 <read_alias_file+0x46c>
   14280:	e59f83f4 	ldr	r8, [pc, #1012]	; 1467c <read_alias_file+0x470>
   14284:	e50b31c0 	str	r3, [fp, #-448]	; 0xfffffe40
   14288:	e24b0f6d 	sub	r0, fp, #436	; 0x1b4
   1428c:	e3a01e19 	mov	r1, #400	; 0x190
   14290:	e1a0200a 	mov	r2, sl
   14294:	eb00141a 	bl	19304 <fgets_unlocked>
   14298:	e3500000 	cmp	r0, #0
   1429c:	0a00007a 	beq	1448c <read_alias_file+0x280>
   142a0:	e3a0100a 	mov	r1, #10
   142a4:	e24b0f6d 	sub	r0, fp, #436	; 0x1b4
   142a8:	eb0040f4 	bl	24680 <strchr>
   142ac:	e79f3009 	ldr	r3, [pc, r9]
   142b0:	e55b21b4 	ldrb	r2, [fp, #-436]	; 0xfffffe4c
   142b4:	e24b5f6d 	sub	r5, fp, #436	; 0x1b4
   142b8:	e1a01082 	lsl	r1, r2, #1
   142bc:	e1a06000 	mov	r6, r0
   142c0:	ebfff3d2 	bl	11210 <__aeabi_read_tp>
   142c4:	e7903003 	ldr	r3, [r0, r3]
   142c8:	e19310b1 	ldrh	r1, [r3, r1]
   142cc:	e3110a02 	tst	r1, #8192	; 0x2000
   142d0:	0a000004 	beq	142e8 <read_alias_file+0xdc>
   142d4:	e5f52001 	ldrb	r2, [r5, #1]!
   142d8:	e1a01082 	lsl	r1, r2, #1
   142dc:	e19310b1 	ldrh	r1, [r3, r1]
   142e0:	e3110a02 	tst	r1, #8192	; 0x2000
   142e4:	1afffffa 	bne	142d4 <read_alias_file+0xc8>
   142e8:	e3520023 	cmp	r2, #35	; 0x23
   142ec:	13520000 	cmpne	r2, #0
   142f0:	0a000060 	beq	14478 <read_alias_file+0x26c>
   142f4:	e5d52001 	ldrb	r2, [r5, #1]
   142f8:	e2854001 	add	r4, r5, #1
   142fc:	e3520000 	cmp	r2, #0
   14300:	0a000075 	beq	144dc <read_alias_file+0x2d0>
   14304:	e1a02082 	lsl	r2, r2, #1
   14308:	ea000003 	b	1431c <read_alias_file+0x110>
   1430c:	e5f42001 	ldrb	r2, [r4, #1]!
   14310:	e3520000 	cmp	r2, #0
   14314:	e1a02082 	lsl	r2, r2, #1
   14318:	0a00006f 	beq	144dc <read_alias_file+0x2d0>
   1431c:	e19320b2 	ldrh	r2, [r3, r2]
   14320:	e3120a02 	tst	r2, #8192	; 0x2000
   14324:	0afffff8 	beq	1430c <read_alias_file+0x100>
   14328:	e5d42001 	ldrb	r2, [r4, #1]
   1432c:	e3a01000 	mov	r1, #0
   14330:	e5c41000 	strb	r1, [r4]
   14334:	e2844001 	add	r4, r4, #1
   14338:	e1a01082 	lsl	r1, r2, #1
   1433c:	e19310b1 	ldrh	r1, [r3, r1]
   14340:	e3110a02 	tst	r1, #8192	; 0x2000
   14344:	0a000004 	beq	1435c <read_alias_file+0x150>
   14348:	e5f42001 	ldrb	r2, [r4, #1]!
   1434c:	e1a01082 	lsl	r1, r2, #1
   14350:	e19310b1 	ldrh	r1, [r3, r1]
   14354:	e3110a02 	tst	r1, #8192	; 0x2000
   14358:	1afffffa 	bne	14348 <read_alias_file+0x13c>
   1435c:	e3520000 	cmp	r2, #0
   14360:	0a000044 	beq	14478 <read_alias_file+0x26c>
   14364:	e5d42001 	ldrb	r2, [r4, #1]
   14368:	e2841001 	add	r1, r4, #1
   1436c:	e3520000 	cmp	r2, #0
   14370:	0a00000d 	beq	143ac <read_alias_file+0x1a0>
   14374:	e1a00082 	lsl	r0, r2, #1
   14378:	ea000003 	b	1438c <read_alias_file+0x180>
   1437c:	e5f12001 	ldrb	r2, [r1, #1]!
   14380:	e3520000 	cmp	r2, #0
   14384:	e1a00082 	lsl	r0, r2, #1
   14388:	0a000007 	beq	143ac <read_alias_file+0x1a0>
   1438c:	e19300b0 	ldrh	r0, [r3, r0]
   14390:	e3100a02 	tst	r0, #8192	; 0x2000
   14394:	0afffff8 	beq	1437c <read_alias_file+0x170>
   14398:	e352000a 	cmp	r2, #10
   1439c:	1a000070 	bne	14564 <read_alias_file+0x358>
   143a0:	e3a03000 	mov	r3, #0
   143a4:	e5c12001 	strb	r2, [r1, #1]
   143a8:	e5c13000 	strb	r3, [r1]
   143ac:	e5987000 	ldr	r7, [r8]
   143b0:	e5983004 	ldr	r3, [r8, #4]
   143b4:	e1570003 	cmp	r7, r3
   143b8:	2a00006f 	bcs	1457c <read_alias_file+0x370>
   143bc:	e59f32bc 	ldr	r3, [pc, #700]	; 14680 <read_alias_file+0x474>
   143c0:	e50b31bc 	str	r3, [fp, #-444]	; 0xfffffe44
   143c4:	e1a00005 	mov	r0, r5
   143c8:	eb004194 	bl	24a20 <strlen>
   143cc:	e2803001 	add	r3, r0, #1
   143d0:	e1a00004 	mov	r0, r4
   143d4:	e50b31b8 	str	r3, [fp, #-440]	; 0xfffffe48
   143d8:	eb004190 	bl	24a20 <strlen>
   143dc:	e5982008 	ldr	r2, [r8, #8]
   143e0:	e51b11b8 	ldr	r1, [fp, #-440]	; 0xfffffe48
   143e4:	e598300c 	ldr	r3, [r8, #12]
   143e8:	e0811002 	add	r1, r1, r2
   143ec:	e50b11c8 	str	r1, [fp, #-456]	; 0xfffffe38
   143f0:	e2800001 	add	r0, r0, #1
   143f4:	e0811000 	add	r1, r1, r0
   143f8:	e1510003 	cmp	r1, r3
   143fc:	e50b01c4 	str	r0, [fp, #-452]	; 0xfffffe3c
   14400:	e50b11cc 	str	r1, [fp, #-460]	; 0xfffffe34
   14404:	8a000038 	bhi	144ec <read_alias_file+0x2e0>
   14408:	e51b31bc 	ldr	r3, [fp, #-444]	; 0xfffffe44
   1440c:	e1a01187 	lsl	r1, r7, #3
   14410:	e50b11d0 	str	r1, [fp, #-464]	; 0xfffffe30
   14414:	e8931008 	ldm	r3, {r3, ip}
   14418:	e08c0002 	add	r0, ip, r2
   1441c:	e1a01005 	mov	r1, r5
   14420:	e51b21b8 	ldr	r2, [fp, #-440]	; 0xfffffe48
   14424:	e50b31d4 	str	r3, [fp, #-468]	; 0xfffffe2c
   14428:	e50bc1bc 	str	ip, [fp, #-444]	; 0xfffffe44
   1442c:	eb00468f 	bl	25e70 <memcpy>
   14430:	e51bc1d0 	ldr	ip, [fp, #-464]	; 0xfffffe30
   14434:	e51b31d4 	ldr	r3, [fp, #-468]	; 0xfffffe2c
   14438:	e51be1c0 	ldr	lr, [fp, #-448]	; 0xfffffe40
   1443c:	e1a01004 	mov	r1, r4
   14440:	e083400c 	add	r4, r3, ip
   14444:	e28ee001 	add	lr, lr, #1
   14448:	e51b21c4 	ldr	r2, [fp, #-452]	; 0xfffffe3c
   1444c:	e50be1c0 	str	lr, [fp, #-448]	; 0xfffffe40
   14450:	e783000c 	str	r0, [r3, ip]
   14454:	e51b31c8 	ldr	r3, [fp, #-456]	; 0xfffffe38
   14458:	e51bc1bc 	ldr	ip, [fp, #-444]	; 0xfffffe44
   1445c:	e08c0003 	add	r0, ip, r3
   14460:	eb004682 	bl	25e70 <memcpy>
   14464:	e2873001 	add	r3, r7, #1
   14468:	e5883000 	str	r3, [r8]
   1446c:	e51b31cc 	ldr	r3, [fp, #-460]	; 0xfffffe34
   14470:	e5883008 	str	r3, [r8, #8]
   14474:	e5840004 	str	r0, [r4, #4]
   14478:	e3560000 	cmp	r6, #0
   1447c:	0a00000d 	beq	144b8 <read_alias_file+0x2ac>
   14480:	e59a3000 	ldr	r3, [sl]
   14484:	e3130010 	tst	r3, #16
   14488:	0affff7e 	beq	14288 <read_alias_file+0x7c>
   1448c:	e1a0000a 	mov	r0, sl
   14490:	eb000acf 	bl	16fd4 <_IO_new_fclose>
   14494:	e51b31c0 	ldr	r3, [fp, #-448]	; 0xfffffe40
   14498:	e3530000 	cmp	r3, #0
   1449c:	1a000047 	bne	145c0 <read_alias_file+0x3b4>
   144a0:	e51b01c0 	ldr	r0, [fp, #-448]	; 0xfffffe40
   144a4:	e24bd020 	sub	sp, fp, #32
   144a8:	e8bd8ff0 	pop	{r4, r5, r6, r7, r8, r9, sl, fp, pc}
   144ac:	eb004073 	bl	24680 <strchr>
   144b0:	e3500000 	cmp	r0, #0
   144b4:	1afffff1 	bne	14480 <read_alias_file+0x274>
   144b8:	e3a01e19 	mov	r1, #400	; 0x190
   144bc:	e24b0f6d 	sub	r0, fp, #436	; 0x1b4
   144c0:	e1a0200a 	mov	r2, sl
   144c4:	eb00138e 	bl	19304 <fgets_unlocked>
   144c8:	e3a0100a 	mov	r1, #10
   144cc:	e3500000 	cmp	r0, #0
   144d0:	e24b0f6d 	sub	r0, fp, #436	; 0x1b4
   144d4:	1afffff4 	bne	144ac <read_alias_file+0x2a0>
   144d8:	eaffffe8 	b	14480 <read_alias_file+0x274>
   144dc:	e1d320b0 	ldrh	r2, [r3]
   144e0:	e3120a02 	tst	r2, #8192	; 0x2000
   144e4:	1affff97 	bne	14348 <read_alias_file+0x13c>
   144e8:	eaffffe2 	b	14478 <read_alias_file+0x26c>
   144ec:	e50b21d8 	str	r2, [fp, #-472]	; 0xfffffe28
   144f0:	e51b11b8 	ldr	r1, [fp, #-440]	; 0xfffffe48
   144f4:	e51b21c4 	ldr	r2, [fp, #-452]	; 0xfffffe3c
   144f8:	e0821001 	add	r1, r2, r1
   144fc:	e51b21bc 	ldr	r2, [fp, #-444]	; 0xfffffe44
   14500:	e3510b01 	cmp	r1, #1024	; 0x400
   14504:	20833001 	addcs	r3, r3, r1
   14508:	32833b01 	addcc	r3, r3, #1024	; 0x400
   1450c:	e1a01003 	mov	r1, r3
   14510:	e592c004 	ldr	ip, [r2, #4]
   14514:	e50b31d4 	str	r3, [fp, #-468]	; 0xfffffe2c
   14518:	e1a0000c 	mov	r0, ip
   1451c:	e50bc1d0 	str	ip, [fp, #-464]	; 0xfffffe30
   14520:	eb0039d0 	bl	22c68 <__libc_realloc>
   14524:	e250e000 	subs	lr, r0, #0
   14528:	0affffd7 	beq	1448c <read_alias_file+0x280>
   1452c:	e51bc1d0 	ldr	ip, [fp, #-464]	; 0xfffffe30
   14530:	e51b21d8 	ldr	r2, [fp, #-472]	; 0xfffffe28
   14534:	e15c000e 	cmp	ip, lr
   14538:	1a000028 	bne	145e0 <read_alias_file+0x3d4>
   1453c:	e51b31bc 	ldr	r3, [fp, #-444]	; 0xfffffe44
   14540:	e1a01187 	lsl	r1, r7, #3
   14544:	e50b11d0 	str	r1, [fp, #-464]	; 0xfffffe30
   14548:	e5933000 	ldr	r3, [r3]
   1454c:	e51b11bc 	ldr	r1, [fp, #-444]	; 0xfffffe44
   14550:	e1a0c00e 	mov	ip, lr
   14554:	e581e004 	str	lr, [r1, #4]
   14558:	e51b11d4 	ldr	r1, [fp, #-468]	; 0xfffffe2c
   1455c:	e588100c 	str	r1, [r8, #12]
   14560:	eaffffac 	b	14418 <read_alias_file+0x20c>
   14564:	e3a03000 	mov	r3, #0
   14568:	e5c13000 	strb	r3, [r1]
   1456c:	e5987000 	ldr	r7, [r8]
   14570:	e5983004 	ldr	r3, [r8, #4]
   14574:	e1570003 	cmp	r7, r3
   14578:	3affff8f 	bcc	143bc <read_alias_file+0x1b0>
   1457c:	e3530000 	cmp	r3, #0
   14580:	11a02083 	lslne	r2, r3, #1
   14584:	11a01203 	lslne	r1, r3, #4
   14588:	e59f30f0 	ldr	r3, [pc, #240]	; 14680 <read_alias_file+0x474>
   1458c:	03a02064 	moveq	r2, #100	; 0x64
   14590:	03a01e32 	moveq	r1, #800	; 0x320
   14594:	e5930000 	ldr	r0, [r3]
   14598:	e50b21b8 	str	r2, [fp, #-440]	; 0xfffffe48
   1459c:	eb0039b1 	bl	22c68 <__libc_realloc>
   145a0:	e59f30d8 	ldr	r3, [pc, #216]	; 14680 <read_alias_file+0x474>
   145a4:	e50b31bc 	str	r3, [fp, #-444]	; 0xfffffe44
   145a8:	e3500000 	cmp	r0, #0
   145ac:	0affffb6 	beq	1448c <read_alias_file+0x280>
   145b0:	e51b21b8 	ldr	r2, [fp, #-440]	; 0xfffffe48
   145b4:	e5830000 	str	r0, [r3]
   145b8:	e5882004 	str	r2, [r8, #4]
   145bc:	eaffff80 	b	143c4 <read_alias_file+0x1b8>
   145c0:	e59f10b8 	ldr	r1, [pc, #184]	; 14680 <read_alias_file+0x474>
   145c4:	e59f30b0 	ldr	r3, [pc, #176]	; 1467c <read_alias_file+0x470>
   145c8:	e3a02008 	mov	r2, #8
   145cc:	e5910000 	ldr	r0, [r1]
   145d0:	e5931000 	ldr	r1, [r3]
   145d4:	e59f30a8 	ldr	r3, [pc, #168]	; 14684 <read_alias_file+0x478>
   145d8:	eb000734 	bl	162b0 <qsort>
   145dc:	eaffffaf 	b	144a0 <read_alias_file+0x294>
   145e0:	e3570000 	cmp	r7, #0
   145e4:	0affffd4 	beq	1453c <read_alias_file+0x330>
   145e8:	e59f3090 	ldr	r3, [pc, #144]	; 14680 <read_alias_file+0x474>
   145ec:	e1a01187 	lsl	r1, r7, #3
   145f0:	e50b11d0 	str	r1, [fp, #-464]	; 0xfffffe30
   145f4:	e5933000 	ldr	r3, [r3]
   145f8:	e06c000e 	rsb	r0, ip, lr
   145fc:	e51bc1d0 	ldr	ip, [fp, #-464]	; 0xfffffe30
   14600:	e50b01d8 	str	r0, [fp, #-472]	; 0xfffffe28
   14604:	e083c00c 	add	ip, r3, ip
   14608:	e50b61e0 	str	r6, [fp, #-480]	; 0xfffffe20
   1460c:	e51b61d8 	ldr	r6, [fp, #-472]	; 0xfffffe28
   14610:	e50ba1dc 	str	sl, [fp, #-476]	; 0xfffffe24
   14614:	e1a01003 	mov	r1, r3
   14618:	e2830004 	add	r0, r3, #4
   1461c:	e1a0a00c 	mov	sl, ip
   14620:	e510c004 	ldr	ip, [r0, #-4]
   14624:	e2811008 	add	r1, r1, #8
   14628:	e08cc006 	add	ip, ip, r6
   1462c:	e500c004 	str	ip, [r0, #-4]
   14630:	e511c004 	ldr	ip, [r1, #-4]
   14634:	e2800008 	add	r0, r0, #8
   14638:	e08cc006 	add	ip, ip, r6
   1463c:	e501c004 	str	ip, [r1, #-4]
   14640:	e151000a 	cmp	r1, sl
   14644:	1afffff5 	bne	14620 <read_alias_file+0x414>
   14648:	e51ba1dc 	ldr	sl, [fp, #-476]	; 0xfffffe24
   1464c:	e51b61e0 	ldr	r6, [fp, #-480]	; 0xfffffe20
   14650:	eaffffbd 	b	1454c <read_alias_file+0x340>
   14654:	e1a0000a 	mov	r0, sl
   14658:	e24bd020 	sub	sp, fp, #32
   1465c:	e8bd8ff0 	pop	{r4, r5, r6, r7, r8, r9, sl, fp, pc}
   14660:	eb000a5b 	bl	16fd4 <_IO_new_fclose>
   14664:	e3a03000 	mov	r3, #0
   14668:	e50b31c0 	str	r3, [fp, #-448]	; 0xfffffe40
   1466c:	eaffff8b 	b	144a0 <read_alias_file+0x294>
   14670:	00071b48 	.word	0x00071b48
   14674:	00071b44 	.word	0x00071b44
   14678:	000842b0 	.word	0x000842b0
   1467c:	000996a0 	.word	0x000996a0
   14680:	0009a518 	.word	0x0009a518
   14684:	000141f8 	.word	0x000141f8

00014688 <_nl_expand_alias>:
   14688:	e59f119c 	ldr	r1, [pc, #412]	; 1482c <_nl_expand_alias+0x1a4>
   1468c:	e92d4ff0 	push	{r4, r5, r6, r7, r8, r9, sl, fp, lr}
   14690:	e3a02001 	mov	r2, #1
   14694:	e24dd00c 	sub	sp, sp, #12
   14698:	e1a06000 	mov	r6, r0
   1469c:	e3a03000 	mov	r3, #0
   146a0:	e58d3000 	str	r3, [sp]
   146a4:	e1913f9f 	ldrex	r3, [r1]
   146a8:	e3530000 	cmp	r3, #0
   146ac:	1a000003 	bne	146c0 <_nl_expand_alias+0x38>
   146b0:	e1810f92 	strex	r0, r2, [r1]
   146b4:	e3500000 	cmp	r0, #0
   146b8:	1afffff9 	bne	146a4 <_nl_expand_alias+0x1c>
   146bc:	ee070fba 	mcr	15, 0, r0, cr7, cr10, {5}
   146c0:	158d3000 	strne	r3, [sp]
   146c4:	e59d3000 	ldr	r3, [sp]
   146c8:	e3530000 	cmp	r3, #0
   146cc:	1a000049 	bne	147f8 <_nl_expand_alias+0x170>
   146d0:	e59f5158 	ldr	r5, [pc, #344]	; 14830 <_nl_expand_alias+0x1a8>
   146d4:	e59f4158 	ldr	r4, [pc, #344]	; 14834 <_nl_expand_alias+0x1ac>
   146d8:	e5958000 	ldr	r8, [r5]
   146dc:	e58d6000 	str	r6, [sp]
   146e0:	e3580000 	cmp	r8, #0
   146e4:	0a000012 	beq	14734 <_nl_expand_alias+0xac>
   146e8:	e59f3148 	ldr	r3, [pc, #328]	; 14838 <_nl_expand_alias+0x1b0>
   146ec:	e3a0b000 	mov	fp, #0
   146f0:	e593a000 	ldr	sl, [r3]
   146f4:	ea000003 	b	14708 <_nl_expand_alias+0x80>
   146f8:	0a00003a 	beq	147e8 <_nl_expand_alias+0x160>
   146fc:	e289b001 	add	fp, r9, #1
   14700:	e15b0008 	cmp	fp, r8
   14704:	2a00000a 	bcs	14734 <_nl_expand_alias+0xac>
   14708:	e088900b 	add	r9, r8, fp
   1470c:	e1a0000d 	mov	r0, sp
   14710:	e1a090a9 	lsr	r9, r9, #1
   14714:	e08a7189 	add	r7, sl, r9, lsl #3
   14718:	e1a01007 	mov	r1, r7
   1471c:	ebfffeb5 	bl	141f8 <alias_compare>
   14720:	e3500000 	cmp	r0, #0
   14724:	aafffff3 	bge	146f8 <_nl_expand_alias+0x70>
   14728:	e1a08009 	mov	r8, r9
   1472c:	e15b0008 	cmp	fp, r8
   14730:	3afffff4 	bcc	14708 <_nl_expand_alias+0x80>
   14734:	e59f90f8 	ldr	r9, [pc, #248]	; 14834 <_nl_expand_alias+0x1ac>
   14738:	e5940000 	ldr	r0, [r4]
   1473c:	e5d03000 	ldrb	r3, [r0]
   14740:	e3530000 	cmp	r3, #0
   14744:	0a000012 	beq	14794 <_nl_expand_alias+0x10c>
   14748:	e353003a 	cmp	r3, #58	; 0x3a
   1474c:	1a000004 	bne	14764 <_nl_expand_alias+0xdc>
   14750:	e5f03001 	ldrb	r3, [r0, #1]!
   14754:	e353003a 	cmp	r3, #58	; 0x3a
   14758:	0afffffc 	beq	14750 <_nl_expand_alias+0xc8>
   1475c:	e3530000 	cmp	r3, #0
   14760:	0a000018 	beq	147c8 <_nl_expand_alias+0x140>
   14764:	e1a02000 	mov	r2, r0
   14768:	e5f23001 	ldrb	r3, [r2, #1]!
   1476c:	e353003a 	cmp	r3, #58	; 0x3a
   14770:	13530000 	cmpne	r3, #0
   14774:	1afffffb 	bne	14768 <_nl_expand_alias+0xe0>
   14778:	e1500002 	cmp	r0, r2
   1477c:	e1a01002 	mov	r1, r2
   14780:	3a000012 	bcc	147d0 <_nl_expand_alias+0x148>
   14784:	e3530000 	cmp	r3, #0
   14788:	e1a00001 	mov	r0, r1
   1478c:	1affffed 	bne	14748 <_nl_expand_alias+0xc0>
   14790:	e5891000 	str	r1, [r9]
   14794:	e3a04000 	mov	r4, #0
   14798:	e59f108c 	ldr	r1, [pc, #140]	; 1482c <_nl_expand_alias+0x1a4>
   1479c:	e3a03000 	mov	r3, #0
   147a0:	ee070fba 	mcr	15, 0, r0, cr7, cr10, {5}
   147a4:	e1912f9f 	ldrex	r2, [r1]
   147a8:	e1810f93 	strex	r0, r3, [r1]
   147ac:	e3500000 	cmp	r0, #0
   147b0:	1afffffb 	bne	147a4 <_nl_expand_alias+0x11c>
   147b4:	e3520001 	cmp	r2, #1
   147b8:	ca000011 	bgt	14804 <_nl_expand_alias+0x17c>
   147bc:	e1a00004 	mov	r0, r4
   147c0:	e28dd00c 	add	sp, sp, #12
   147c4:	e8bd8ff0 	pop	{r4, r5, r6, r7, r8, r9, sl, fp, pc}
   147c8:	e1a01000 	mov	r1, r0
   147cc:	eaffffec 	b	14784 <_nl_expand_alias+0xfc>
   147d0:	e0601002 	rsb	r1, r0, r2
   147d4:	e5842000 	str	r2, [r4]
   147d8:	ebfffe8b 	bl	1420c <read_alias_file>
   147dc:	e3500000 	cmp	r0, #0
   147e0:	0affffd4 	beq	14738 <_nl_expand_alias+0xb0>
   147e4:	eaffffbb 	b	146d8 <_nl_expand_alias+0x50>
   147e8:	e3570000 	cmp	r7, #0
   147ec:	0affffd0 	beq	14734 <_nl_expand_alias+0xac>
   147f0:	e5974004 	ldr	r4, [r7, #4]
   147f4:	eaffffe7 	b	14798 <_nl_expand_alias+0x110>
   147f8:	e59f002c 	ldr	r0, [pc, #44]	; 1482c <_nl_expand_alias+0x1a4>
   147fc:	eb00529f 	bl	29280 <__lll_lock_wait_private>
   14800:	eaffffb2 	b	146d0 <_nl_expand_alias+0x48>
   14804:	ebfff281 	bl	11210 <__aeabi_read_tp>
   14808:	e51014b8 	ldr	r1, [r0, #-1208]	; 0xfffffb48
   1480c:	e3a02001 	mov	r2, #1
   14810:	e3811001 	orr	r1, r1, #1
   14814:	e59f0010 	ldr	r0, [pc, #16]	; 1482c <_nl_expand_alias+0x1a4>
   14818:	e3a070f0 	mov	r7, #240	; 0xf0
   1481c:	ef000000 	svc	0x00000000
   14820:	e1a00004 	mov	r0, r4
   14824:	e28dd00c 	add	sp, sp, #12
   14828:	e8bd8ff0 	pop	{r4, r5, r6, r7, r8, r9, sl, fp, pc}
   1482c:	000996b0 	.word	0x000996b0
   14830:	000996a0 	.word	0x000996a0
   14834:	00098598 	.word	0x00098598
   14838:	0009a518 	.word	0x0009a518

0001483c <_nl_make_l10nflist>:
   1483c:	e92d4ff0 	push	{r4, r5, r6, r7, r8, r9, sl, fp, lr}
   14840:	e24dd03c 	sub	sp, sp, #60	; 0x3c
   14844:	e1a0a000 	mov	sl, r0
   14848:	e59d8060 	ldr	r8, [sp, #96]	; 0x60
   1484c:	e1a04002 	mov	r4, r2
   14850:	e1a00008 	mov	r0, r8
   14854:	e1a07003 	mov	r7, r3
   14858:	e58d1024 	str	r1, [sp, #36]	; 0x24
   1485c:	e58d2028 	str	r2, [sp, #40]	; 0x28
   14860:	eb00406e 	bl	24a20 <strlen>
   14864:	e217b004 	ands	fp, r7, #4
   14868:	e2845002 	add	r5, r4, #2
   1486c:	e59d9074 	ldr	r9, [sp, #116]	; 0x74
   14870:	01a0400b 	moveq	r4, fp
   14874:	e1a06000 	mov	r6, r0
   14878:	0a000002 	beq	14888 <_nl_make_l10nflist+0x4c>
   1487c:	e59d0064 	ldr	r0, [sp, #100]	; 0x64
   14880:	eb004066 	bl	24a20 <strlen>
   14884:	e2804001 	add	r4, r0, #1
   14888:	e2173002 	ands	r3, r7, #2
   1488c:	e58d302c 	str	r3, [sp, #44]	; 0x2c
   14890:	e0855006 	add	r5, r5, r6
   14894:	0a0000c1 	beq	14ba0 <_nl_make_l10nflist+0x364>
   14898:	e59d0068 	ldr	r0, [sp, #104]	; 0x68
   1489c:	eb00405f 	bl	24a20 <strlen>
   148a0:	e2803001 	add	r3, r0, #1
   148a4:	e2172001 	ands	r2, r7, #1
   148a8:	e58d2030 	str	r2, [sp, #48]	; 0x30
   148ac:	e0854004 	add	r4, r5, r4
   148b0:	0a0000b8 	beq	14b98 <_nl_make_l10nflist+0x35c>
   148b4:	e59d006c 	ldr	r0, [sp, #108]	; 0x6c
   148b8:	e58d3034 	str	r3, [sp, #52]	; 0x34
   148bc:	eb004057 	bl	24a20 <strlen>
   148c0:	e59d3034 	ldr	r3, [sp, #52]	; 0x34
   148c4:	e2805001 	add	r5, r0, #1
   148c8:	e2176008 	ands	r6, r7, #8
   148cc:	e0844003 	add	r4, r4, r3
   148d0:	01a03006 	moveq	r3, r6
   148d4:	0a000002 	beq	148e4 <_nl_make_l10nflist+0xa8>
   148d8:	e59d0070 	ldr	r0, [sp, #112]	; 0x70
   148dc:	eb00404f 	bl	24a20 <strlen>
   148e0:	e2803001 	add	r3, r0, #1
   148e4:	e1a00009 	mov	r0, r9
   148e8:	e58d3034 	str	r3, [sp, #52]	; 0x34
   148ec:	eb00404b 	bl	24a20 <strlen>
   148f0:	e59d3034 	ldr	r3, [sp, #52]	; 0x34
   148f4:	e0844005 	add	r4, r4, r5
   148f8:	e0844003 	add	r4, r4, r3
   148fc:	e0840000 	add	r0, r4, r0
   14900:	eb0036d9 	bl	2246c <__libc_malloc>
   14904:	e2504000 	subs	r4, r0, #0
   14908:	0a0000c6 	beq	14c28 <_nl_make_l10nflist+0x3ec>
   1490c:	e59d5028 	ldr	r5, [sp, #40]	; 0x28
   14910:	e59d1024 	ldr	r1, [sp, #36]	; 0x24
   14914:	e1a02005 	mov	r2, r5
   14918:	eb004554 	bl	25e70 <memcpy>
   1491c:	e1a00004 	mov	r0, r4
   14920:	e1a01005 	mov	r1, r5
   14924:	e3a0203a 	mov	r2, #58	; 0x3a
   14928:	eb004690 	bl	26370 <__argz_stringify>
   1492c:	e2453001 	sub	r3, r5, #1
   14930:	e3a0202f 	mov	r2, #47	; 0x2f
   14934:	e7c42003 	strb	r2, [r4, r3]
   14938:	e0840005 	add	r0, r4, r5
   1493c:	e1a01008 	mov	r1, r8
   14940:	eb003f8e 	bl	24780 <__stpcpy>
   14944:	e35b0000 	cmp	fp, #0
   14948:	1a0000ae 	bne	14c08 <_nl_make_l10nflist+0x3cc>
   1494c:	e59d302c 	ldr	r3, [sp, #44]	; 0x2c
   14950:	e3530000 	cmp	r3, #0
   14954:	1a0000a5 	bne	14bf0 <_nl_make_l10nflist+0x3b4>
   14958:	e59d3030 	ldr	r3, [sp, #48]	; 0x30
   1495c:	e3530000 	cmp	r3, #0
   14960:	1a00009c 	bne	14bd8 <_nl_make_l10nflist+0x39c>
   14964:	e3560000 	cmp	r6, #0
   14968:	1a000094 	bne	14bc0 <_nl_make_l10nflist+0x384>
   1496c:	e3a0302f 	mov	r3, #47	; 0x2f
   14970:	e4c03001 	strb	r3, [r0], #1
   14974:	e1a01009 	mov	r1, r9
   14978:	eb003f84 	bl	24790 <strcpy>
   1497c:	e59a6000 	ldr	r6, [sl]
   14980:	e3560000 	cmp	r6, #0
   14984:	0a0000a9 	beq	14c30 <_nl_make_l10nflist+0x3f4>
   14988:	e1a0b006 	mov	fp, r6
   1498c:	e3a05000 	mov	r5, #0
   14990:	e59b3000 	ldr	r3, [fp]
   14994:	e1a01004 	mov	r1, r4
   14998:	e2530000 	subs	r0, r3, #0
   1499c:	0a000004 	beq	149b4 <_nl_make_l10nflist+0x178>
   149a0:	eb003f6a 	bl	24750 <strcmp>
   149a4:	e3500000 	cmp	r0, #0
   149a8:	0a00007f 	beq	14bac <_nl_make_l10nflist+0x370>
   149ac:	ba000003 	blt	149c0 <_nl_make_l10nflist+0x184>
   149b0:	e1a0500b 	mov	r5, fp
   149b4:	e59bb00c 	ldr	fp, [fp, #12]
   149b8:	e35b0000 	cmp	fp, #0
   149bc:	1afffff3 	bne	14990 <_nl_make_l10nflist+0x154>
   149c0:	e59d3078 	ldr	r3, [sp, #120]	; 0x78
   149c4:	e3530000 	cmp	r3, #0
   149c8:	0a000076 	beq	14ba8 <_nl_make_l10nflist+0x36c>
   149cc:	e59d1028 	ldr	r1, [sp, #40]	; 0x28
   149d0:	e59d0024 	ldr	r0, [sp, #36]	; 0x24
   149d4:	eb004654 	bl	2632c <__argz_count>
   149d8:	e3c71c55 	bic	r1, r7, #21760	; 0x5500
   149dc:	e59f3264 	ldr	r3, [pc, #612]	; 14c48 <_nl_make_l10nflist+0x40c>
   149e0:	e3c11055 	bic	r1, r1, #85	; 0x55
   149e4:	e0033007 	and	r3, r3, r7
   149e8:	e08310c1 	add	r1, r3, r1, asr #1
   149ec:	e3c12c33 	bic	r2, r1, #13056	; 0x3300
   149f0:	e59f3254 	ldr	r3, [pc, #596]	; 14c4c <_nl_make_l10nflist+0x410>
   149f4:	e3c22033 	bic	r2, r2, #51	; 0x33
   149f8:	e0033001 	and	r3, r3, r1
   149fc:	e0832142 	add	r2, r3, r2, asr #2
   14a00:	e59f3248 	ldr	r3, [pc, #584]	; 14c50 <_nl_make_l10nflist+0x414>
   14a04:	e0822242 	add	r2, r2, r2, asr #4
   14a08:	e0033002 	and	r3, r3, r2
   14a0c:	e0833423 	add	r3, r3, r3, lsr #8
   14a10:	e6ef3073 	uxtb	r3, r3
   14a14:	e1a00310 	lsl	r0, r0, r3
   14a18:	e2800005 	add	r0, r0, #5
   14a1c:	e1a00100 	lsl	r0, r0, #2
   14a20:	eb003691 	bl	2246c <__libc_malloc>
   14a24:	e2503000 	subs	r3, r0, #0
   14a28:	e58d3030 	str	r3, [sp, #48]	; 0x30
   14a2c:	0a000081 	beq	14c38 <_nl_make_l10nflist+0x3fc>
   14a30:	e59d3030 	ldr	r3, [sp, #48]	; 0x30
   14a34:	e59d1028 	ldr	r1, [sp, #40]	; 0x28
   14a38:	e59d0024 	ldr	r0, [sp, #36]	; 0x24
   14a3c:	e5834000 	str	r4, [r3]
   14a40:	eb004639 	bl	2632c <__argz_count>
   14a44:	e59d1030 	ldr	r1, [sp, #48]	; 0x30
   14a48:	e3a02000 	mov	r2, #0
   14a4c:	e5812008 	str	r2, [r1, #8]
   14a50:	e3500001 	cmp	r0, #1
   14a54:	02073003 	andeq	r3, r7, #3
   14a58:	02433003 	subeq	r3, r3, #3
   14a5c:	13a03001 	movne	r3, #1
   14a60:	016f3f13 	clzeq	r3, r3
   14a64:	01a032a3 	lsreq	r3, r3, #5
   14a68:	e3550000 	cmp	r5, #0
   14a6c:	e5813004 	str	r3, [r1, #4]
   14a70:	159d2030 	ldrne	r2, [sp, #48]	; 0x30
   14a74:	01a03001 	moveq	r3, r1
   14a78:	1595300c 	ldrne	r3, [r5, #12]
   14a7c:	0583600c 	streq	r6, [r3, #12]
   14a80:	1582300c 	strne	r3, [r2, #12]
   14a84:	058a3000 	streq	r3, [sl]
   14a88:	1585200c 	strne	r2, [r5, #12]
   14a8c:	e59d0024 	ldr	r0, [sp, #36]	; 0x24
   14a90:	e59d1028 	ldr	r1, [sp, #40]	; 0x28
   14a94:	eb004624 	bl	2632c <__argz_count>
   14a98:	e3500001 	cmp	r0, #1
   14a9c:	02476001 	subeq	r6, r7, #1
   14aa0:	11a06007 	movne	r6, r7
   14aa4:	e3560000 	cmp	r6, #0
   14aa8:	ba00005c 	blt	14c20 <_nl_make_l10nflist+0x3e4>
   14aac:	e1e03007 	mvn	r3, r7
   14ab0:	e58d302c 	str	r3, [sp, #44]	; 0x2c
   14ab4:	e59d2028 	ldr	r2, [sp, #40]	; 0x28
   14ab8:	e59d3024 	ldr	r3, [sp, #36]	; 0x24
   14abc:	e3a05000 	mov	r5, #0
   14ac0:	e0837002 	add	r7, r3, r2
   14ac4:	e59d302c 	ldr	r3, [sp, #44]	; 0x2c
   14ac8:	e016c003 	ands	ip, r6, r3
   14acc:	1a000028 	bne	14b74 <_nl_make_l10nflist+0x338>
   14ad0:	e2854003 	add	r4, r5, #3
   14ad4:	e59d3030 	ldr	r3, [sp, #48]	; 0x30
   14ad8:	e1a0b00c 	mov	fp, ip
   14adc:	e0834104 	add	r4, r3, r4, lsl #2
   14ae0:	ea00001b 	b	14b54 <_nl_make_l10nflist+0x318>
   14ae4:	e15b0007 	cmp	fp, r7
   14ae8:	2a000001 	bcs	14af4 <_nl_make_l10nflist+0x2b8>
   14aec:	eb0045ab 	bl	261a0 <__rawmemchr>
   14af0:	e280b001 	add	fp, r0, #1
   14af4:	e35b0000 	cmp	fp, #0
   14af8:	1157000b 	cmpne	r7, fp
   14afc:	9a00001c 	bls	14b74 <_nl_make_l10nflist+0x338>
   14b00:	e1a0000b 	mov	r0, fp
   14b04:	eb003fc5 	bl	24a20 <strlen>
   14b08:	e59d3064 	ldr	r3, [sp, #100]	; 0x64
   14b0c:	e58d8000 	str	r8, [sp]
   14b10:	e58d3004 	str	r3, [sp, #4]
   14b14:	e59d3068 	ldr	r3, [sp, #104]	; 0x68
   14b18:	e58d9014 	str	r9, [sp, #20]
   14b1c:	e58d3008 	str	r3, [sp, #8]
   14b20:	e59d306c 	ldr	r3, [sp, #108]	; 0x6c
   14b24:	e1a0100b 	mov	r1, fp
   14b28:	e58d300c 	str	r3, [sp, #12]
   14b2c:	e59d3070 	ldr	r3, [sp, #112]	; 0x70
   14b30:	e2855001 	add	r5, r5, #1
   14b34:	e58d3010 	str	r3, [sp, #16]
   14b38:	e3a03001 	mov	r3, #1
   14b3c:	e58d3018 	str	r3, [sp, #24]
   14b40:	e1a03006 	mov	r3, r6
   14b44:	e2802001 	add	r2, r0, #1
   14b48:	e1a0000a 	mov	r0, sl
   14b4c:	ebffff3a 	bl	1483c <_nl_make_l10nflist>
   14b50:	e5a40004 	str	r0, [r4, #4]!
   14b54:	e3a01000 	mov	r1, #0
   14b58:	e15b0001 	cmp	fp, r1
   14b5c:	e1a0000b 	mov	r0, fp
   14b60:	1affffdf 	bne	14ae4 <_nl_make_l10nflist+0x2a8>
   14b64:	e59d3028 	ldr	r3, [sp, #40]	; 0x28
   14b68:	e59db024 	ldr	fp, [sp, #36]	; 0x24
   14b6c:	e3530000 	cmp	r3, #0
   14b70:	1affffe2 	bne	14b00 <_nl_make_l10nflist+0x2c4>
   14b74:	e2566001 	subs	r6, r6, #1
   14b78:	2affffd1 	bcs	14ac4 <_nl_make_l10nflist+0x288>
   14b7c:	e59d2030 	ldr	r2, [sp, #48]	; 0x30
   14b80:	e2855004 	add	r5, r5, #4
   14b84:	e1a00002 	mov	r0, r2
   14b88:	e3a03000 	mov	r3, #0
   14b8c:	e7823105 	str	r3, [r2, r5, lsl #2]
   14b90:	e28dd03c 	add	sp, sp, #60	; 0x3c
   14b94:	e8bd8ff0 	pop	{r4, r5, r6, r7, r8, r9, sl, fp, pc}
   14b98:	e59d5030 	ldr	r5, [sp, #48]	; 0x30
   14b9c:	eaffff49 	b	148c8 <_nl_make_l10nflist+0x8c>
   14ba0:	e59d302c 	ldr	r3, [sp, #44]	; 0x2c
   14ba4:	eaffff3e 	b	148a4 <_nl_make_l10nflist+0x68>
   14ba8:	e1a0b003 	mov	fp, r3
   14bac:	e1a00004 	mov	r0, r4
   14bb0:	eb003802 	bl	22bc0 <__cfree>
   14bb4:	e1a0000b 	mov	r0, fp
   14bb8:	e28dd03c 	add	sp, sp, #60	; 0x3c
   14bbc:	e8bd8ff0 	pop	{r4, r5, r6, r7, r8, r9, sl, fp, pc}
   14bc0:	e3a03040 	mov	r3, #64	; 0x40
   14bc4:	e5c03000 	strb	r3, [r0]
   14bc8:	e59d1070 	ldr	r1, [sp, #112]	; 0x70
   14bcc:	e2800001 	add	r0, r0, #1
   14bd0:	eb003eea 	bl	24780 <__stpcpy>
   14bd4:	eaffff64 	b	1496c <_nl_make_l10nflist+0x130>
   14bd8:	e3a0302e 	mov	r3, #46	; 0x2e
   14bdc:	e5c03000 	strb	r3, [r0]
   14be0:	e59d106c 	ldr	r1, [sp, #108]	; 0x6c
   14be4:	e2800001 	add	r0, r0, #1
   14be8:	eb003ee4 	bl	24780 <__stpcpy>
   14bec:	eaffff5c 	b	14964 <_nl_make_l10nflist+0x128>
   14bf0:	e3a0302e 	mov	r3, #46	; 0x2e
   14bf4:	e5c03000 	strb	r3, [r0]
   14bf8:	e59d1068 	ldr	r1, [sp, #104]	; 0x68
   14bfc:	e2800001 	add	r0, r0, #1
   14c00:	eb003ede 	bl	24780 <__stpcpy>
   14c04:	eaffff53 	b	14958 <_nl_make_l10nflist+0x11c>
   14c08:	e3a0305f 	mov	r3, #95	; 0x5f
   14c0c:	e5c03000 	strb	r3, [r0]
   14c10:	e59d1064 	ldr	r1, [sp, #100]	; 0x64
   14c14:	e2800001 	add	r0, r0, #1
   14c18:	eb003ed8 	bl	24780 <__stpcpy>
   14c1c:	eaffff4a 	b	1494c <_nl_make_l10nflist+0x110>
   14c20:	e3a05000 	mov	r5, #0
   14c24:	eaffffd4 	b	14b7c <_nl_make_l10nflist+0x340>
   14c28:	e1a00004 	mov	r0, r4
   14c2c:	eaffffd7 	b	14b90 <_nl_make_l10nflist+0x354>
   14c30:	e1a05006 	mov	r5, r6
   14c34:	eaffff61 	b	149c0 <_nl_make_l10nflist+0x184>
   14c38:	e1a00004 	mov	r0, r4
   14c3c:	eb0037df 	bl	22bc0 <__cfree>
   14c40:	e59d0030 	ldr	r0, [sp, #48]	; 0x30
   14c44:	eaffffd1 	b	14b90 <_nl_make_l10nflist+0x354>
   14c48:	00005555 	.word	0x00005555
   14c4c:	00003333 	.word	0x00003333
   14c50:	00000f0f 	.word	0x00000f0f

00014c54 <_nl_normalize_codeset>:
   14c54:	e3510000 	cmp	r1, #0
   14c58:	e92d40f8 	push	{r3, r4, r5, r6, r7, lr}
   14c5c:	0a000034 	beq	14d34 <_nl_normalize_codeset+0xe0>
   14c60:	e59f60fc 	ldr	r6, [pc, #252]	; 14d64 <_nl_normalize_codeset+0x110>
   14c64:	e1a04000 	mov	r4, r0
   14c68:	e0805001 	add	r5, r0, r1
   14c6c:	e596e034 	ldr	lr, [r6, #52]	; 0x34
   14c70:	e1a02000 	mov	r2, r0
   14c74:	e3a0c001 	mov	ip, #1
   14c78:	e3a00000 	mov	r0, #0
   14c7c:	e4d23001 	ldrb	r3, [r2], #1
   14c80:	e2431030 	sub	r1, r3, #48	; 0x30
   14c84:	e1a03083 	lsl	r3, r3, #1
   14c88:	e19e30b3 	ldrh	r3, [lr, r3]
   14c8c:	e3130008 	tst	r3, #8
   14c90:	0a000002 	beq	14ca0 <_nl_normalize_codeset+0x4c>
   14c94:	e3510009 	cmp	r1, #9
   14c98:	e2800001 	add	r0, r0, #1
   14c9c:	83a0c000 	movhi	ip, #0
   14ca0:	e1520005 	cmp	r2, r5
   14ca4:	1afffff4 	bne	14c7c <_nl_normalize_codeset+0x28>
   14ca8:	e35c0000 	cmp	ip, #0
   14cac:	0a00001a 	beq	14d1c <_nl_normalize_codeset+0xc8>
   14cb0:	e2800004 	add	r0, r0, #4
   14cb4:	eb0035ec 	bl	2246c <__libc_malloc>
   14cb8:	e3500000 	cmp	r0, #0
   14cbc:	0a000026 	beq	14d5c <_nl_normalize_codeset+0x108>
   14cc0:	e59f30a0 	ldr	r3, [pc, #160]	; 14d68 <_nl_normalize_codeset+0x114>
   14cc4:	e1a0c000 	mov	ip, r0
   14cc8:	e48c3003 	str	r3, [ip], #3
   14ccc:	e5967034 	ldr	r7, [r6, #52]	; 0x34
   14cd0:	e1a02004 	mov	r2, r4
   14cd4:	e5966038 	ldr	r6, [r6, #56]	; 0x38
   14cd8:	ea000004 	b	14cf0 <_nl_normalize_codeset+0x9c>
   14cdc:	e796310e 	ldr	r3, [r6, lr, lsl #2]
   14ce0:	e28cc001 	add	ip, ip, #1
   14ce4:	e54c3001 	strb	r3, [ip, #-1]
   14ce8:	e1520005 	cmp	r2, r5
   14cec:	0a000017 	beq	14d50 <_nl_normalize_codeset+0xfc>
   14cf0:	e4d23001 	ldrb	r3, [r2], #1
   14cf4:	e2434030 	sub	r4, r3, #48	; 0x30
   14cf8:	e6bfe073 	sxth	lr, r3
   14cfc:	e1a0108e 	lsl	r1, lr, #1
   14d00:	e19710b1 	ldrh	r1, [r7, r1]
   14d04:	e3110b01 	tst	r1, #1024	; 0x400
   14d08:	1afffff3 	bne	14cdc <_nl_normalize_codeset+0x88>
   14d0c:	e3540009 	cmp	r4, #9
   14d10:	95cc3000 	strbls	r3, [ip]
   14d14:	928cc001 	addls	ip, ip, #1
   14d18:	eafffff2 	b	14ce8 <_nl_normalize_codeset+0x94>
   14d1c:	e2800001 	add	r0, r0, #1
   14d20:	eb0035d1 	bl	2246c <__libc_malloc>
   14d24:	e3500000 	cmp	r0, #0
   14d28:	11a0c000 	movne	ip, r0
   14d2c:	1affffe6 	bne	14ccc <_nl_normalize_codeset+0x78>
   14d30:	e8bd80f8 	pop	{r3, r4, r5, r6, r7, pc}
   14d34:	e3a00004 	mov	r0, #4
   14d38:	eb0035cb 	bl	2246c <__libc_malloc>
   14d3c:	e3500000 	cmp	r0, #0
   14d40:	0a000006 	beq	14d60 <_nl_normalize_codeset+0x10c>
   14d44:	e59f301c 	ldr	r3, [pc, #28]	; 14d68 <_nl_normalize_codeset+0x114>
   14d48:	e1a0c000 	mov	ip, r0
   14d4c:	e48c3003 	str	r3, [ip], #3
   14d50:	e3a03000 	mov	r3, #0
   14d54:	e5cc3000 	strb	r3, [ip]
   14d58:	e8bd80f8 	pop	{r3, r4, r5, r6, r7, pc}
   14d5c:	e8bd80f8 	pop	{r3, r4, r5, r6, r7, pc}
   14d60:	e8bd80f8 	pop	{r3, r4, r5, r6, r7, pc}
   14d64:	000813ec 	.word	0x000813ec
   14d68:	006f7369 	.word	0x006f7369

00014d6c <_nl_explode_name>:
   14d6c:	e92d4ff8 	push	{r3, r4, r5, r6, r7, r8, r9, sl, fp, lr}
   14d70:	e1a09003 	mov	r9, r3
   14d74:	e3a03000 	mov	r3, #0
   14d78:	e5823000 	str	r3, [r2]
   14d7c:	e59d7028 	ldr	r7, [sp, #40]	; 0x28
   14d80:	e1a08002 	mov	r8, r2
   14d84:	e59d202c 	ldr	r2, [sp, #44]	; 0x2c
   14d88:	e5893000 	str	r3, [r9]
   14d8c:	e5873000 	str	r3, [r7]
   14d90:	e5823000 	str	r3, [r2]
   14d94:	e5810000 	str	r0, [r1]
   14d98:	e5d02000 	ldrb	r2, [r0]
   14d9c:	e31200bf 	tst	r2, #191	; 0xbf
   14da0:	13a03001 	movne	r3, #1
   14da4:	e352005f 	cmp	r2, #95	; 0x5f
   14da8:	03a03000 	moveq	r3, #0
   14dac:	12033001 	andne	r3, r3, #1
   14db0:	e3530000 	cmp	r3, #0
   14db4:	0a00006e 	beq	14f74 <_nl_explode_name+0x208>
   14db8:	e352002e 	cmp	r2, #46	; 0x2e
   14dbc:	0a00006c 	beq	14f74 <_nl_explode_name+0x208>
   14dc0:	e1a0c000 	mov	ip, r0
   14dc4:	ea000003 	b	14dd8 <_nl_explode_name+0x6c>
   14dc8:	e3510040 	cmp	r1, #64	; 0x40
   14dcc:	0a000038 	beq	14eb4 <_nl_explode_name+0x148>
   14dd0:	e351002e 	cmp	r1, #46	; 0x2e
   14dd4:	0a000041 	beq	14ee0 <_nl_explode_name+0x174>
   14dd8:	e5fc1001 	ldrb	r1, [ip, #1]!
   14ddc:	e351005f 	cmp	r1, #95	; 0x5f
   14de0:	13510000 	cmpne	r1, #0
   14de4:	13a0e001 	movne	lr, #1
   14de8:	03a0e000 	moveq	lr, #0
   14dec:	1afffff5 	bne	14dc8 <_nl_explode_name+0x5c>
   14df0:	e150000c 	cmp	r0, ip
   14df4:	e1a0500c 	mov	r5, ip
   14df8:	0a00005d 	beq	14f74 <_nl_explode_name+0x208>
   14dfc:	e3510040 	cmp	r1, #64	; 0x40
   14e00:	0a000059 	beq	14f6c <_nl_explode_name+0x200>
   14e04:	e351005f 	cmp	r1, #95	; 0x5f
   14e08:	11a0400e 	movne	r4, lr
   14e0c:	1a000014 	bne	14e64 <_nl_explode_name+0xf8>
   14e10:	e4c5e001 	strb	lr, [r5], #1
   14e14:	e5895000 	str	r5, [r9]
   14e18:	e5dc1001 	ldrb	r1, [ip, #1]
   14e1c:	e31100bf 	tst	r1, #191	; 0xbf
   14e20:	13a03001 	movne	r3, #1
   14e24:	03a03000 	moveq	r3, #0
   14e28:	e351002e 	cmp	r1, #46	; 0x2e
   14e2c:	03a03000 	moveq	r3, #0
   14e30:	12033001 	andne	r3, r3, #1
   14e34:	e3530000 	cmp	r3, #0
   14e38:	0a000008 	beq	14e60 <_nl_explode_name+0xf4>
   14e3c:	e5f51001 	ldrb	r1, [r5, #1]!
   14e40:	e31100bf 	tst	r1, #191	; 0xbf
   14e44:	13a0c001 	movne	ip, #1
   14e48:	03a0c000 	moveq	ip, #0
   14e4c:	e351002e 	cmp	r1, #46	; 0x2e
   14e50:	03a0c000 	moveq	ip, #0
   14e54:	120cc001 	andne	ip, ip, #1
   14e58:	e35c0000 	cmp	ip, #0
   14e5c:	1afffff6 	bne	14e3c <_nl_explode_name+0xd0>
   14e60:	e3a04004 	mov	r4, #4
   14e64:	e351002e 	cmp	r1, #46	; 0x2e
   14e68:	0a000052 	beq	14fb8 <_nl_explode_name+0x24c>
   14e6c:	e3510040 	cmp	r1, #64	; 0x40
   14e70:	0a000048 	beq	14f98 <_nl_explode_name+0x22c>
   14e74:	e5993000 	ldr	r3, [r9]
   14e78:	e3530000 	cmp	r3, #0
   14e7c:	0a000002 	beq	14e8c <_nl_explode_name+0x120>
   14e80:	e5d33000 	ldrb	r3, [r3]
   14e84:	e3530000 	cmp	r3, #0
   14e88:	03c44004 	biceq	r4, r4, #4
   14e8c:	e5973000 	ldr	r3, [r7]
   14e90:	e3530000 	cmp	r3, #0
   14e94:	0a000004 	beq	14eac <_nl_explode_name+0x140>
   14e98:	e5d33000 	ldrb	r3, [r3]
   14e9c:	e3530000 	cmp	r3, #0
   14ea0:	1a000001 	bne	14eac <_nl_explode_name+0x140>
   14ea4:	e3c40002 	bic	r0, r4, #2
   14ea8:	e8bd8ff8 	pop	{r3, r4, r5, r6, r7, r8, r9, sl, fp, pc}
   14eac:	e1a00004 	mov	r0, r4
   14eb0:	e8bd8ff8 	pop	{r3, r4, r5, r6, r7, r8, r9, sl, fp, pc}
   14eb4:	e150000c 	cmp	r0, ip
   14eb8:	0a00002d 	beq	14f74 <_nl_explode_name+0x208>
   14ebc:	e3a04000 	mov	r4, #0
   14ec0:	e1a0300c 	mov	r3, ip
   14ec4:	e3a02000 	mov	r2, #0
   14ec8:	e4c32001 	strb	r2, [r3], #1
   14ecc:	e5883000 	str	r3, [r8]
   14ed0:	e5dc3001 	ldrb	r3, [ip, #1]
   14ed4:	e1530002 	cmp	r3, r2
   14ed8:	13844008 	orrne	r4, r4, #8
   14edc:	eaffffe4 	b	14e74 <_nl_explode_name+0x108>
   14ee0:	e150000c 	cmp	r0, ip
   14ee4:	13a0b000 	movne	fp, #0
   14ee8:	0a000021 	beq	14f74 <_nl_explode_name+0x208>
   14eec:	e1a0000c 	mov	r0, ip
   14ef0:	e3a03000 	mov	r3, #0
   14ef4:	e4c03001 	strb	r3, [r0], #1
   14ef8:	e5870000 	str	r0, [r7]
   14efc:	e5dc1001 	ldrb	r1, [ip, #1]
   14f00:	e31100bf 	tst	r1, #191	; 0xbf
   14f04:	0a000020 	beq	14f8c <_nl_explode_name+0x220>
   14f08:	e1a0a000 	mov	sl, r0
   14f0c:	ea000000 	b	14f14 <_nl_explode_name+0x1a8>
   14f10:	e1a0a005 	mov	sl, r5
   14f14:	e5da3001 	ldrb	r3, [sl, #1]
   14f18:	e28a5001 	add	r5, sl, #1
   14f1c:	e31300bf 	tst	r3, #191	; 0xbf
   14f20:	1afffffa 	bne	14f10 <_nl_explode_name+0x1a4>
   14f24:	e1500005 	cmp	r0, r5
   14f28:	e38b4002 	orr	r4, fp, #2
   14f2c:	0affffce 	beq	14e6c <_nl_explode_name+0x100>
   14f30:	e0601005 	rsb	r1, r0, r5
   14f34:	ebffff46 	bl	14c54 <_nl_normalize_codeset>
   14f38:	e59d302c 	ldr	r3, [sp, #44]	; 0x2c
   14f3c:	e3500000 	cmp	r0, #0
   14f40:	e1a06000 	mov	r6, r0
   14f44:	e5830000 	str	r0, [r3]
   14f48:	0a000018 	beq	14fb0 <_nl_explode_name+0x244>
   14f4c:	e5970000 	ldr	r0, [r7]
   14f50:	e1a01006 	mov	r1, r6
   14f54:	eb003dfd 	bl	24750 <strcmp>
   14f58:	e3500000 	cmp	r0, #0
   14f5c:	0a00000f 	beq	14fa0 <_nl_explode_name+0x234>
   14f60:	e5da1001 	ldrb	r1, [sl, #1]
   14f64:	e38b4003 	orr	r4, fp, #3
   14f68:	eaffffbf 	b	14e6c <_nl_explode_name+0x100>
   14f6c:	e1a0400e 	mov	r4, lr
   14f70:	eaffffd2 	b	14ec0 <_nl_explode_name+0x154>
   14f74:	e3a01000 	mov	r1, #0
   14f78:	eb004488 	bl	261a0 <__rawmemchr>
   14f7c:	e3a04000 	mov	r4, #0
   14f80:	e1a05000 	mov	r5, r0
   14f84:	e5d01000 	ldrb	r1, [r0]
   14f88:	eaffffb7 	b	14e6c <_nl_explode_name+0x100>
   14f8c:	e38b4002 	orr	r4, fp, #2
   14f90:	e1a05000 	mov	r5, r0
   14f94:	eaffffb4 	b	14e6c <_nl_explode_name+0x100>
   14f98:	e1a0c005 	mov	ip, r5
   14f9c:	eaffffc7 	b	14ec0 <_nl_explode_name+0x154>
   14fa0:	e1a00006 	mov	r0, r6
   14fa4:	eb003705 	bl	22bc0 <__cfree>
   14fa8:	e5da1001 	ldrb	r1, [sl, #1]
   14fac:	eaffffae 	b	14e6c <_nl_explode_name+0x100>
   14fb0:	e3e00000 	mvn	r0, #0
   14fb4:	e8bd8ff8 	pop	{r3, r4, r5, r6, r7, r8, r9, sl, fp, pc}
   14fb8:	e1a0b004 	mov	fp, r4
   14fbc:	e1a0c005 	mov	ip, r5
   14fc0:	eaffffc9 	b	14eec <_nl_explode_name+0x180>

00014fc4 <__gettext_free_exp>:
   14fc4:	e3500000 	cmp	r0, #0
   14fc8:	012fff1e 	bxeq	lr
   14fcc:	e5903000 	ldr	r3, [r0]
   14fd0:	e92d4010 	push	{r4, lr}
   14fd4:	e3530002 	cmp	r3, #2
   14fd8:	e1a04000 	mov	r4, r0
   14fdc:	0a000008 	beq	15004 <__gettext_free_exp+0x40>
   14fe0:	e3530003 	cmp	r3, #3
   14fe4:	0a000004 	beq	14ffc <__gettext_free_exp+0x38>
   14fe8:	e3530001 	cmp	r3, #1
   14fec:	0a000006 	beq	1500c <__gettext_free_exp+0x48>
   14ff0:	e1a00004 	mov	r0, r4
   14ff4:	e8bd4010 	pop	{r4, lr}
   14ff8:	ea0036f0 	b	22bc0 <__cfree>
   14ffc:	e5900010 	ldr	r0, [r0, #16]
   15000:	ebffffef 	bl	14fc4 <__gettext_free_exp>
   15004:	e594000c 	ldr	r0, [r4, #12]
   15008:	ebffffed 	bl	14fc4 <__gettext_free_exp>
   1500c:	e5940008 	ldr	r0, [r4, #8]
   15010:	ebffffeb 	bl	14fc4 <__gettext_free_exp>
   15014:	e1a00004 	mov	r0, r4
   15018:	e8bd4010 	pop	{r4, lr}
   1501c:	ea0036e7 	b	22bc0 <__cfree>

00015020 <new_exp>:
   15020:	e92d47f0 	push	{r4, r5, r6, r7, r8, r9, sl, lr}
   15024:	e2504001 	subs	r4, r0, #1
   15028:	e1a06000 	mov	r6, r0
   1502c:	e1a09001 	mov	r9, r1
   15030:	4a00002b 	bmi	150e4 <new_exp+0xc4>
   15034:	e7925104 	ldr	r5, [r2, r4, lsl #2]
   15038:	e1a0a002 	mov	sl, r2
   1503c:	e3550000 	cmp	r5, #0
   15040:	e1a07104 	lsl	r7, r4, #2
   15044:	0a000019 	beq	150b0 <new_exp+0x90>
   15048:	e0828007 	add	r8, r2, r7
   1504c:	e1a0c008 	mov	ip, r8
   15050:	e1a03004 	mov	r3, r4
   15054:	ea000002 	b	15064 <new_exp+0x44>
   15058:	e53ce004 	ldr	lr, [ip, #-4]!
   1505c:	e35e0000 	cmp	lr, #0
   15060:	0a000012 	beq	150b0 <new_exp+0x90>
   15064:	e2533001 	subs	r3, r3, #1
   15068:	2afffffa 	bcs	15058 <new_exp+0x38>
   1506c:	e3a00014 	mov	r0, #20
   15070:	eb0034fd 	bl	2246c <__libc_malloc>
   15074:	e3500000 	cmp	r0, #0
   15078:	0a000017 	beq	150dc <new_exp+0xbc>
   1507c:	e287300c 	add	r3, r7, #12
   15080:	e0803003 	add	r3, r0, r3
   15084:	e2444001 	sub	r4, r4, #1
   15088:	e3740001 	cmn	r4, #1
   1508c:	e8800240 	stm	r0, {r6, r9}
   15090:	e5235004 	str	r5, [r3, #-4]!
   15094:	0a000004 	beq	150ac <new_exp+0x8c>
   15098:	e5385004 	ldr	r5, [r8, #-4]!
   1509c:	e2444001 	sub	r4, r4, #1
   150a0:	e3740001 	cmn	r4, #1
   150a4:	e5235004 	str	r5, [r3, #-4]!
   150a8:	1afffffa 	bne	15098 <new_exp+0x78>
   150ac:	e8bd87f0 	pop	{r4, r5, r6, r7, r8, r9, sl, pc}
   150b0:	e1a00005 	mov	r0, r5
   150b4:	e2466107 	sub	r6, r6, #-1073741823	; 0xc0000001
   150b8:	e08a5106 	add	r5, sl, r6, lsl #2
   150bc:	ea000000 	b	150c4 <new_exp+0xa4>
   150c0:	e5350004 	ldr	r0, [r5, #-4]!
   150c4:	e2444001 	sub	r4, r4, #1
   150c8:	ebffffbd 	bl	14fc4 <__gettext_free_exp>
   150cc:	e3740001 	cmn	r4, #1
   150d0:	1afffffa 	bne	150c0 <new_exp+0xa0>
   150d4:	e3a00000 	mov	r0, #0
   150d8:	e8bd87f0 	pop	{r4, r5, r6, r7, r8, r9, sl, pc}
   150dc:	e79a0104 	ldr	r0, [sl, r4, lsl #2]
   150e0:	eafffff3 	b	150b4 <new_exp+0x94>
   150e4:	e3a00014 	mov	r0, #20
   150e8:	eb0034df 	bl	2246c <__libc_malloc>
   150ec:	e3500000 	cmp	r0, #0
   150f0:	0afffff7 	beq	150d4 <new_exp+0xb4>
   150f4:	e8800240 	stm	r0, {r6, r9}
   150f8:	e8bd87f0 	pop	{r4, r5, r6, r7, r8, r9, sl, pc}

000150fc <__gettextparse>:
   150fc:	e92d4ff0 	push	{r4, r5, r6, r7, r8, r9, sl, fp, lr}
   15100:	e24dde4d 	sub	sp, sp, #1232	; 0x4d0
   15104:	e24dd00c 	sub	sp, sp, #12
   15108:	e28d5028 	add	r5, sp, #40	; 0x28
   1510c:	e59f6850 	ldr	r6, [pc, #2128]	; 15964 <__gettextparse+0x868>
   15110:	e3a03000 	mov	r3, #0
   15114:	e1a07005 	mov	r7, r5
   15118:	e3a090c8 	mov	r9, #200	; 0xc8
   1511c:	e1a0a005 	mov	sl, r5
   15120:	e28d4f6e 	add	r4, sp, #440	; 0x1b8
   15124:	e58d3008 	str	r3, [sp, #8]
   15128:	e1a0b003 	mov	fp, r3
   1512c:	e3e03001 	mvn	r3, #1
   15130:	e58d0010 	str	r0, [sp, #16]
   15134:	e58d4004 	str	r4, [sp, #4]
   15138:	e58d3000 	str	r3, [sp]
   1513c:	e2492106 	sub	r2, r9, #-2147483647	; 0x80000001
   15140:	e1cab0b0 	strh	fp, [sl]
   15144:	e1a02082 	lsl	r2, r2, #1
   15148:	e0871002 	add	r1, r7, r2
   1514c:	e15a0001 	cmp	sl, r1
   15150:	3a00002e 	bcc	15210 <__gettextparse+0x114>
   15154:	e067500a 	rsb	r5, r7, sl
   15158:	e59f3808 	ldr	r3, [pc, #2056]	; 15968 <__gettextparse+0x86c>
   1515c:	e1a050c5 	asr	r5, r5, #1
   15160:	e1590003 	cmp	r9, r3
   15164:	e2855001 	add	r5, r5, #1
   15168:	8a0001ea 	bhi	15918 <__gettextparse+0x81c>
   1516c:	e282c002 	add	ip, r2, #2
   15170:	e2833001 	add	r3, r3, #1
   15174:	e15c0003 	cmp	ip, r3
   15178:	31a0900c 	movcc	r9, ip
   1517c:	21a09003 	movcs	r9, r3
   15180:	e1a0a089 	lsl	sl, r9, #1
   15184:	e08a0009 	add	r0, sl, r9
   15188:	e1a00080 	lsl	r0, r0, #1
   1518c:	e2800003 	add	r0, r0, #3
   15190:	eb0034b5 	bl	2246c <__libc_malloc>
   15194:	e2508000 	subs	r8, r0, #0
   15198:	0a0001de 	beq	15918 <__gettextparse+0x81c>
   1519c:	e1a04085 	lsl	r4, r5, #1
   151a0:	e1a02004 	mov	r2, r4
   151a4:	e1a01007 	mov	r1, r7
   151a8:	eb004330 	bl	25e70 <memcpy>
   151ac:	e28a2003 	add	r2, sl, #3
   151b0:	e3c22003 	bic	r2, r2, #3
   151b4:	e1a03105 	lsl	r3, r5, #2
   151b8:	e0885002 	add	r5, r8, r2
   151bc:	e59d1004 	ldr	r1, [sp, #4]
   151c0:	e1a02003 	mov	r2, r3
   151c4:	e1a00005 	mov	r0, r5
   151c8:	e58d300c 	str	r3, [sp, #12]
   151cc:	eb004327 	bl	25e70 <memcpy>
   151d0:	e28d3028 	add	r3, sp, #40	; 0x28
   151d4:	e1570003 	cmp	r7, r3
   151d8:	0a000001 	beq	151e4 <__gettextparse+0xe8>
   151dc:	e1a00007 	mov	r0, r7
   151e0:	eb003676 	bl	22bc0 <__cfree>
   151e4:	e2444002 	sub	r4, r4, #2
   151e8:	e24a2002 	sub	r2, sl, #2
   151ec:	e59d300c 	ldr	r3, [sp, #12]
   151f0:	e088a004 	add	sl, r8, r4
   151f4:	e0882002 	add	r2, r8, r2
   151f8:	e2433004 	sub	r3, r3, #4
   151fc:	e15a0002 	cmp	sl, r2
   15200:	e0854003 	add	r4, r5, r3
   15204:	2a0001c7 	bcs	15928 <__gettextparse+0x82c>
   15208:	e1a07008 	mov	r7, r8
   1520c:	e58d5004 	str	r5, [sp, #4]
   15210:	e35b0009 	cmp	fp, #9
   15214:	0a0001c1 	beq	15920 <__gettextparse+0x824>
   15218:	e7d6200b 	ldrb	r2, [r6, fp]
   1521c:	e6af0072 	sxtb	r0, r2
   15220:	e370000a 	cmn	r0, #10
   15224:	0a000014 	beq	1527c <__gettextparse+0x180>
   15228:	e59d3000 	ldr	r3, [sp]
   1522c:	e3730002 	cmn	r3, #2
   15230:	0a00008a 	beq	15460 <__gettextparse+0x364>
   15234:	e59d3000 	ldr	r3, [sp]
   15238:	e3530000 	cmp	r3, #0
   1523c:	da000076 	ble	1541c <__gettextparse+0x320>
   15240:	e59f1724 	ldr	r1, [pc, #1828]	; 1596c <__gettextparse+0x870>
   15244:	e1530001 	cmp	r3, r1
   15248:	c3a01002 	movgt	r1, #2
   1524c:	ca000002 	bgt	1525c <__gettextparse+0x160>
   15250:	e59d3000 	ldr	r3, [sp]
   15254:	e0861003 	add	r1, r6, r3
   15258:	e5d1101c 	ldrb	r1, [r1, #28]
   1525c:	e0800001 	add	r0, r0, r1
   15260:	e3500036 	cmp	r0, #54	; 0x36
   15264:	8a000004 	bhi	1527c <__gettextparse+0x180>
   15268:	e0860000 	add	r0, r6, r0
   1526c:	e280ef49 	add	lr, r0, #292	; 0x124
   15270:	e1dee0d0 	ldrsb	lr, [lr]
   15274:	e15e0001 	cmp	lr, r1
   15278:	0a00006b 	beq	1542c <__gettextparse+0x330>
   1527c:	e086300b 	add	r3, r6, fp
   15280:	e5d35194 	ldrb	r5, [r3, #404]	; 0x194
   15284:	e3550000 	cmp	r5, #0
   15288:	0a000013 	beq	152dc <__gettextparse+0x1e0>
   1528c:	e0862005 	add	r2, r6, r5
   15290:	e2453002 	sub	r3, r5, #2
   15294:	e5d281b0 	ldrb	r8, [r2, #432]	; 0x1b0
   15298:	e2682001 	rsb	r2, r8, #1
   1529c:	e7940102 	ldr	r0, [r4, r2, lsl #2]
   152a0:	e353000b 	cmp	r3, #11
   152a4:	979ff103 	ldrls	pc, [pc, r3, lsl #2]
   152a8:	ea00003e 	b	153a8 <__gettextparse+0x2ac>
   152ac:	000156b8 	.word	0x000156b8
   152b0:	000156e4 	.word	0x000156e4
   152b4:	00015704 	.word	0x00015704
   152b8:	0001571c 	.word	0x0001571c
   152bc:	0001538c 	.word	0x0001538c
   152c0:	0001538c 	.word	0x0001538c
   152c4:	0001538c 	.word	0x0001538c
   152c8:	0001538c 	.word	0x0001538c
   152cc:	000156a8 	.word	0x000156a8
   152d0:	00015698 	.word	0x00015698
   152d4:	00015750 	.word	0x00015750
   152d8:	00015734 	.word	0x00015734
   152dc:	e59d3008 	ldr	r3, [sp, #8]
   152e0:	e3530003 	cmp	r3, #3
   152e4:	1a000005 	bne	15300 <__gettextparse+0x204>
   152e8:	ea000017 	b	1534c <__gettextparse+0x250>
   152ec:	e15a0007 	cmp	sl, r7
   152f0:	0a00001b 	beq	15364 <__gettextparse+0x268>
   152f4:	e17a30f2 	ldrsh	r3, [sl, #-2]!
   152f8:	e2444004 	sub	r4, r4, #4
   152fc:	e7d62003 	ldrb	r2, [r6, r3]
   15300:	e6af2072 	sxtb	r2, r2
   15304:	e372000a 	cmn	r2, #10
   15308:	e2823001 	add	r3, r2, #1
   1530c:	0afffff6 	beq	152ec <__gettextparse+0x1f0>
   15310:	e3530036 	cmp	r3, #54	; 0x36
   15314:	e0862003 	add	r2, r6, r3
   15318:	8afffff3 	bhi	152ec <__gettextparse+0x1f0>
   1531c:	e5d23124 	ldrb	r3, [r2, #292]	; 0x124
   15320:	e3530001 	cmp	r3, #1
   15324:	1afffff0 	bne	152ec <__gettextparse+0x1f0>
   15328:	e5d2b15c 	ldrb	fp, [r2, #348]	; 0x15c
   1532c:	e35b0000 	cmp	fp, #0
   15330:	0affffed 	beq	152ec <__gettextparse+0x1f0>
   15334:	e59d3014 	ldr	r3, [sp, #20]
   15338:	e2844004 	add	r4, r4, #4
   1533c:	e5843000 	str	r3, [r4]
   15340:	e3a03003 	mov	r3, #3
   15344:	e58d3008 	str	r3, [sp, #8]
   15348:	ea000031 	b	15414 <__gettextparse+0x318>
   1534c:	e59d3000 	ldr	r3, [sp]
   15350:	e3530000 	cmp	r3, #0
   15354:	c3e03001 	mvngt	r3, #1
   15358:	c58d3000 	strgt	r3, [sp]
   1535c:	caffffe7 	bgt	15300 <__gettextparse+0x204>
   15360:	1affffe6 	bne	15300 <__gettextparse+0x204>
   15364:	e3a04001 	mov	r4, #1
   15368:	e28d3028 	add	r3, sp, #40	; 0x28
   1536c:	e1570003 	cmp	r7, r3
   15370:	0a000001 	beq	1537c <__gettextparse+0x280>
   15374:	e1a00007 	mov	r0, r7
   15378:	eb003610 	bl	22bc0 <__cfree>
   1537c:	e1a00004 	mov	r0, r4
   15380:	e28dde4d 	add	sp, sp, #1232	; 0x4d0
   15384:	e28dd00c 	add	sp, sp, #12
   15388:	e8bd8ff0 	pop	{r4, r5, r6, r7, r8, r9, sl, fp, pc}
   1538c:	e8140006 	ldmda	r4, {r1, r2}
   15390:	e3a00002 	mov	r0, #2
   15394:	e5143008 	ldr	r3, [r4, #-8]
   15398:	e58d2020 	str	r2, [sp, #32]
   1539c:	e28d201c 	add	r2, sp, #28
   153a0:	e58d301c 	str	r3, [sp, #28]
   153a4:	ebffff1d 	bl	15020 <new_exp>
   153a8:	e6bf8078 	sxth	r8, r8
   153ac:	e1a02108 	lsl	r2, r8, #2
   153b0:	e1a03088 	lsl	r3, r8, #1
   153b4:	e2622000 	rsb	r2, r2, #0
   153b8:	e2633000 	rsb	r3, r3, #0
   153bc:	e0865005 	add	r5, r6, r5
   153c0:	e1ba10f3 	ldrsh	r1, [sl, r3]!
   153c4:	e5d531c0 	ldrb	r3, [r5, #448]	; 0x1c0
   153c8:	e0842002 	add	r2, r4, r2
   153cc:	e2824004 	add	r4, r2, #4
   153d0:	e2433010 	sub	r3, r3, #16
   153d4:	e086e003 	add	lr, r6, r3
   153d8:	e28eee1d 	add	lr, lr, #464	; 0x1d0
   153dc:	e5820004 	str	r0, [r2, #4]
   153e0:	e1de20d0 	ldrsb	r2, [lr]
   153e4:	e0822001 	add	r2, r2, r1
   153e8:	e3520036 	cmp	r2, #54	; 0x36
   153ec:	8a000005 	bhi	15408 <__gettextparse+0x30c>
   153f0:	e0862002 	add	r2, r6, r2
   153f4:	e2820f49 	add	r0, r2, #292	; 0x124
   153f8:	e1d000d0 	ldrsb	r0, [r0]
   153fc:	e1500001 	cmp	r0, r1
   15400:	05d2b15c 	ldrbeq	fp, [r2, #348]	; 0x15c
   15404:	0a000002 	beq	15414 <__gettextparse+0x318>
   15408:	e0863003 	add	r3, r6, r3
   1540c:	e2833f75 	add	r3, r3, #468	; 0x1d4
   15410:	e1d3b0d0 	ldrsb	fp, [r3]
   15414:	e28aa002 	add	sl, sl, #2
   15418:	eaffff47 	b	1513c <__gettextparse+0x40>
   1541c:	e3a03000 	mov	r3, #0
   15420:	e58d3000 	str	r3, [sp]
   15424:	e1a01003 	mov	r1, r3
   15428:	eaffff8b 	b	1525c <__gettextparse+0x160>
   1542c:	e5d0b15c 	ldrb	fp, [r0, #348]	; 0x15c
   15430:	e35b0000 	cmp	fp, #0
   15434:	0a0000d3 	beq	15788 <__gettextparse+0x68c>
   15438:	e59d3008 	ldr	r3, [sp, #8]
   1543c:	e2844004 	add	r4, r4, #4
   15440:	e3530000 	cmp	r3, #0
   15444:	12433001 	subne	r3, r3, #1
   15448:	158d3008 	strne	r3, [sp, #8]
   1544c:	e59d3014 	ldr	r3, [sp, #20]
   15450:	e5843000 	str	r3, [r4]
   15454:	e3e03001 	mvn	r3, #1
   15458:	e58d3000 	str	r3, [sp]
   1545c:	eaffffec 	b	15414 <__gettextparse+0x318>
   15460:	e59d3010 	ldr	r3, [sp, #16]
   15464:	e593e000 	ldr	lr, [r3]
   15468:	e5de1000 	ldrb	r1, [lr]
   1546c:	e3510000 	cmp	r1, #0
   15470:	1a000003 	bne	15484 <__gettextparse+0x388>
   15474:	ea0000c8 	b	1579c <__gettextparse+0x6a0>
   15478:	e5fe1001 	ldrb	r1, [lr, #1]!
   1547c:	e3510000 	cmp	r1, #0
   15480:	0a0000c5 	beq	1579c <__gettextparse+0x6a0>
   15484:	e3510009 	cmp	r1, #9
   15488:	13510020 	cmpne	r1, #32
   1548c:	0afffff9 	beq	15478 <__gettextparse+0x37c>
   15490:	e28e5001 	add	r5, lr, #1
   15494:	e58d1000 	str	r1, [sp]
   15498:	e351007c 	cmp	r1, #124	; 0x7c
   1549c:	979ff101 	ldrls	pc, [pc, r1, lsl #2]
   154a0:	ea0000cb 	b	157d4 <__gettextparse+0x6d8>
   154a4:	0001579c 	.word	0x0001579c
   154a8:	000157d4 	.word	0x000157d4
   154ac:	000157d4 	.word	0x000157d4
   154b0:	000157d4 	.word	0x000157d4
   154b4:	000157d4 	.word	0x000157d4
   154b8:	000157d4 	.word	0x000157d4
   154bc:	000157d4 	.word	0x000157d4
   154c0:	000157d4 	.word	0x000157d4
   154c4:	000157d4 	.word	0x000157d4
   154c8:	000157d4 	.word	0x000157d4
   154cc:	0001579c 	.word	0x0001579c
   154d0:	000157d4 	.word	0x000157d4
   154d4:	000157d4 	.word	0x000157d4
   154d8:	000157d4 	.word	0x000157d4
   154dc:	000157d4 	.word	0x000157d4
   154e0:	000157d4 	.word	0x000157d4
   154e4:	000157d4 	.word	0x000157d4
   154e8:	000157d4 	.word	0x000157d4
   154ec:	000157d4 	.word	0x000157d4
   154f0:	000157d4 	.word	0x000157d4
   154f4:	000157d4 	.word	0x000157d4
   154f8:	000157d4 	.word	0x000157d4
   154fc:	000157d4 	.word	0x000157d4
   15500:	000157d4 	.word	0x000157d4
   15504:	000157d4 	.word	0x000157d4
   15508:	000157d4 	.word	0x000157d4
   1550c:	000157d4 	.word	0x000157d4
   15510:	000157d4 	.word	0x000157d4
   15514:	000157d4 	.word	0x000157d4
   15518:	000157d4 	.word	0x000157d4
   1551c:	000157d4 	.word	0x000157d4
   15520:	000157d4 	.word	0x000157d4
   15524:	000157d4 	.word	0x000157d4
   15528:	000157fc 	.word	0x000157fc
   1552c:	000157d4 	.word	0x000157d4
   15530:	000157d4 	.word	0x000157d4
   15534:	000157d4 	.word	0x000157d4
   15538:	000157e8 	.word	0x000157e8
   1553c:	000157c4 	.word	0x000157c4
   15540:	000157d4 	.word	0x000157d4
   15544:	000157b0 	.word	0x000157b0
   15548:	000157b0 	.word	0x000157b0
   1554c:	000158a0 	.word	0x000158a0
   15550:	0001588c 	.word	0x0001588c
   15554:	000157d4 	.word	0x000157d4
   15558:	00015878 	.word	0x00015878
   1555c:	000157d4 	.word	0x000157d4
   15560:	00015864 	.word	0x00015864
   15564:	000158d4 	.word	0x000158d4
   15568:	000158d4 	.word	0x000158d4
   1556c:	000158d4 	.word	0x000158d4
   15570:	000158d4 	.word	0x000158d4
   15574:	000158d4 	.word	0x000158d4
   15578:	000158d4 	.word	0x000158d4
   1557c:	000158d4 	.word	0x000158d4
   15580:	000158d4 	.word	0x000158d4
   15584:	000158d4 	.word	0x000158d4
   15588:	000158d4 	.word	0x000158d4
   1558c:	000157b0 	.word	0x000157b0
   15590:	0001579c 	.word	0x0001579c
   15594:	000158b4 	.word	0x000158b4
   15598:	00015840 	.word	0x00015840
   1559c:	00015820 	.word	0x00015820
   155a0:	000157b0 	.word	0x000157b0
   155a4:	000157d4 	.word	0x000157d4
   155a8:	000157d4 	.word	0x000157d4
   155ac:	000157d4 	.word	0x000157d4
   155b0:	000157d4 	.word	0x000157d4
   155b4:	000157d4 	.word	0x000157d4
   155b8:	000157d4 	.word	0x000157d4
   155bc:	000157d4 	.word	0x000157d4
   155c0:	000157d4 	.word	0x000157d4
   155c4:	000157d4 	.word	0x000157d4
   155c8:	000157d4 	.word	0x000157d4
   155cc:	000157d4 	.word	0x000157d4
   155d0:	000157d4 	.word	0x000157d4
   155d4:	000157d4 	.word	0x000157d4
   155d8:	000157d4 	.word	0x000157d4
   155dc:	000157d4 	.word	0x000157d4
   155e0:	000157d4 	.word	0x000157d4
   155e4:	000157d4 	.word	0x000157d4
   155e8:	000157d4 	.word	0x000157d4
   155ec:	000157d4 	.word	0x000157d4
   155f0:	000157d4 	.word	0x000157d4
   155f4:	000157d4 	.word	0x000157d4
   155f8:	000157d4 	.word	0x000157d4
   155fc:	000157d4 	.word	0x000157d4
   15600:	000157d4 	.word	0x000157d4
   15604:	000157d4 	.word	0x000157d4
   15608:	000157d4 	.word	0x000157d4
   1560c:	000157d4 	.word	0x000157d4
   15610:	000157d4 	.word	0x000157d4
   15614:	000157d4 	.word	0x000157d4
   15618:	000157d4 	.word	0x000157d4
   1561c:	000157d4 	.word	0x000157d4
   15620:	000157d4 	.word	0x000157d4
   15624:	000157d4 	.word	0x000157d4
   15628:	000157d4 	.word	0x000157d4
   1562c:	000157d4 	.word	0x000157d4
   15630:	000157d4 	.word	0x000157d4
   15634:	000157d4 	.word	0x000157d4
   15638:	000157d4 	.word	0x000157d4
   1563c:	000157d4 	.word	0x000157d4
   15640:	000157d4 	.word	0x000157d4
   15644:	000157d4 	.word	0x000157d4
   15648:	000157d4 	.word	0x000157d4
   1564c:	000157d4 	.word	0x000157d4
   15650:	000157d4 	.word	0x000157d4
   15654:	000157d4 	.word	0x000157d4
   15658:	000157d4 	.word	0x000157d4
   1565c:	000157b0 	.word	0x000157b0
   15660:	000157d4 	.word	0x000157d4
   15664:	000157d4 	.word	0x000157d4
   15668:	000157d4 	.word	0x000157d4
   1566c:	000157d4 	.word	0x000157d4
   15670:	000157d4 	.word	0x000157d4
   15674:	000157d4 	.word	0x000157d4
   15678:	000157d4 	.word	0x000157d4
   1567c:	000157d4 	.word	0x000157d4
   15680:	000157d4 	.word	0x000157d4
   15684:	000157d4 	.word	0x000157d4
   15688:	000157d4 	.word	0x000157d4
   1568c:	000157d4 	.word	0x000157d4
   15690:	000157d4 	.word	0x000157d4
   15694:	000157c4 	.word	0x000157c4
   15698:	e3a00000 	mov	r0, #0
   1569c:	e1a01000 	mov	r1, r0
   156a0:	e1a02000 	mov	r2, r0
   156a4:	eaffff3e 	b	153a4 <__gettextparse+0x2a8>
   156a8:	e5943000 	ldr	r3, [r4]
   156ac:	e3a00001 	mov	r0, #1
   156b0:	e3a01002 	mov	r1, #2
   156b4:	eaffff38 	b	1539c <__gettextparse+0x2a0>
   156b8:	e5943000 	ldr	r3, [r4]
   156bc:	e3530000 	cmp	r3, #0
   156c0:	0affff27 	beq	15364 <__gettextparse+0x268>
   156c4:	e59d2010 	ldr	r2, [sp, #16]
   156c8:	e6bf8078 	sxth	r8, r8
   156cc:	e5823004 	str	r3, [r2, #4]
   156d0:	e1a02108 	lsl	r2, r8, #2
   156d4:	e1a03088 	lsl	r3, r8, #1
   156d8:	e2622000 	rsb	r2, r2, #0
   156dc:	e2633000 	rsb	r3, r3, #0
   156e0:	eaffff35 	b	153bc <__gettextparse+0x2c0>
   156e4:	e5141008 	ldr	r1, [r4, #-8]
   156e8:	e5942000 	ldr	r2, [r4]
   156ec:	e58d1020 	str	r1, [sp, #32]
   156f0:	e5143010 	ldr	r3, [r4, #-16]
   156f4:	e3a00003 	mov	r0, #3
   156f8:	e3a01010 	mov	r1, #16
   156fc:	e58d2024 	str	r2, [sp, #36]	; 0x24
   15700:	eaffff25 	b	1539c <__gettextparse+0x2a0>
   15704:	e5942000 	ldr	r2, [r4]
   15708:	e5143008 	ldr	r3, [r4, #-8]
   1570c:	e3a00002 	mov	r0, #2
   15710:	e3a0100f 	mov	r1, #15
   15714:	e58d2020 	str	r2, [sp, #32]
   15718:	eaffff1f 	b	1539c <__gettextparse+0x2a0>
   1571c:	e5942000 	ldr	r2, [r4]
   15720:	e5143008 	ldr	r3, [r4, #-8]
   15724:	e3a00002 	mov	r0, #2
   15728:	e3a0100e 	mov	r1, #14
   1572c:	e58d2020 	str	r2, [sp, #32]
   15730:	eaffff19 	b	1539c <__gettextparse+0x2a0>
   15734:	e5140004 	ldr	r0, [r4, #-4]
   15738:	e6bf8078 	sxth	r8, r8
   1573c:	e1a02108 	lsl	r2, r8, #2
   15740:	e1a03088 	lsl	r3, r8, #1
   15744:	e2622000 	rsb	r2, r2, #0
   15748:	e2633000 	rsb	r3, r3, #0
   1574c:	eaffff1a 	b	153bc <__gettextparse+0x2c0>
   15750:	e3a00000 	mov	r0, #0
   15754:	e1a02000 	mov	r2, r0
   15758:	e3a01001 	mov	r1, #1
   1575c:	ebfffe2f 	bl	15020 <new_exp>
   15760:	e6bf8078 	sxth	r8, r8
   15764:	e3500000 	cmp	r0, #0
   15768:	0afffff3 	beq	1573c <__gettextparse+0x640>
   1576c:	e5941000 	ldr	r1, [r4]
   15770:	e1a02108 	lsl	r2, r8, #2
   15774:	e1a03088 	lsl	r3, r8, #1
   15778:	e2622000 	rsb	r2, r2, #0
   1577c:	e2633000 	rsb	r3, r3, #0
   15780:	e5801008 	str	r1, [r0, #8]
   15784:	eaffff0c 	b	153bc <__gettextparse+0x2c0>
   15788:	e1a0300b 	mov	r3, fp
   1578c:	e1a0200b 	mov	r2, fp
   15790:	e1a0500b 	mov	r5, fp
   15794:	e5940004 	ldr	r0, [r4, #4]
   15798:	eaffff07 	b	153bc <__gettextparse+0x2c0>
   1579c:	e59d3010 	ldr	r3, [sp, #16]
   157a0:	e3a01000 	mov	r1, #0
   157a4:	e58d1000 	str	r1, [sp]
   157a8:	e583e000 	str	lr, [r3]
   157ac:	eafffeaa 	b	1525c <__gettextparse+0x160>
   157b0:	e59d3010 	ldr	r3, [sp, #16]
   157b4:	e3510000 	cmp	r1, #0
   157b8:	e5835000 	str	r5, [r3]
   157bc:	0afffea6 	beq	1525c <__gettextparse+0x160>
   157c0:	eafffea2 	b	15250 <__gettextparse+0x154>
   157c4:	e5de8001 	ldrb	r8, [lr, #1]
   157c8:	e1510008 	cmp	r1, r8
   157cc:	028e5002 	addeq	r5, lr, #2
   157d0:	0afffff6 	beq	157b0 <__gettextparse+0x6b4>
   157d4:	e3a03c01 	mov	r3, #256	; 0x100
   157d8:	e58d3000 	str	r3, [sp]
   157dc:	e59d3010 	ldr	r3, [sp, #16]
   157e0:	e5835000 	str	r5, [r3]
   157e4:	eafffe99 	b	15250 <__gettextparse+0x154>
   157e8:	e3a03005 	mov	r3, #5
   157ec:	e58d3014 	str	r3, [sp, #20]
   157f0:	e2833c01 	add	r3, r3, #256	; 0x100
   157f4:	e58d3000 	str	r3, [sp]
   157f8:	eafffff7 	b	157dc <__gettextparse+0x6e0>
   157fc:	e5de8001 	ldrb	r8, [lr, #1]
   15800:	e358003d 	cmp	r8, #61	; 0x3d
   15804:	1affffe9 	bne	157b0 <__gettextparse+0x6b4>
   15808:	e3a0300d 	mov	r3, #13
   1580c:	e58d3014 	str	r3, [sp, #20]
   15810:	e28330f5 	add	r3, r3, #245	; 0xf5
   15814:	e28e5002 	add	r5, lr, #2
   15818:	e58d3000 	str	r3, [sp]
   1581c:	eaffffee 	b	157dc <__gettextparse+0x6e0>
   15820:	e5de1001 	ldrb	r1, [lr, #1]
   15824:	e351003d 	cmp	r1, #61	; 0x3d
   15828:	0a000047 	beq	1594c <__gettextparse+0x850>
   1582c:	e59f313c 	ldr	r3, [pc, #316]	; 15970 <__gettextparse+0x874>
   15830:	e58d3000 	str	r3, [sp]
   15834:	e3a03009 	mov	r3, #9
   15838:	e58d3014 	str	r3, [sp, #20]
   1583c:	eaffffe6 	b	157dc <__gettextparse+0x6e0>
   15840:	e5de1001 	ldrb	r1, [lr, #1]
   15844:	e351003d 	cmp	r1, #61	; 0x3d
   15848:	1affffe1 	bne	157d4 <__gettextparse+0x6d8>
   1584c:	e3a0300c 	mov	r3, #12
   15850:	e58d3014 	str	r3, [sp, #20]
   15854:	e28330f6 	add	r3, r3, #246	; 0xf6
   15858:	e28e5002 	add	r5, lr, #2
   1585c:	e58d3000 	str	r3, [sp]
   15860:	eaffffdd 	b	157dc <__gettextparse+0x6e0>
   15864:	e3a03004 	mov	r3, #4
   15868:	e58d3014 	str	r3, [sp, #20]
   1586c:	e59f3100 	ldr	r3, [pc, #256]	; 15974 <__gettextparse+0x878>
   15870:	e58d3000 	str	r3, [sp]
   15874:	eaffffd8 	b	157dc <__gettextparse+0x6e0>
   15878:	e3a03007 	mov	r3, #7
   1587c:	e58d3014 	str	r3, [sp, #20]
   15880:	e3a03f41 	mov	r3, #260	; 0x104
   15884:	e58d3000 	str	r3, [sp]
   15888:	eaffffd3 	b	157dc <__gettextparse+0x6e0>
   1588c:	e3a03006 	mov	r3, #6
   15890:	e58d3014 	str	r3, [sp, #20]
   15894:	e3a03f41 	mov	r3, #260	; 0x104
   15898:	e58d3000 	str	r3, [sp]
   1589c:	eaffffce 	b	157dc <__gettextparse+0x6e0>
   158a0:	e3a03003 	mov	r3, #3
   158a4:	e58d3014 	str	r3, [sp, #20]
   158a8:	e59f30c4 	ldr	r3, [pc, #196]	; 15974 <__gettextparse+0x878>
   158ac:	e58d3000 	str	r3, [sp]
   158b0:	eaffffc9 	b	157dc <__gettextparse+0x6e0>
   158b4:	e5de1001 	ldrb	r1, [lr, #1]
   158b8:	e351003d 	cmp	r1, #61	; 0x3d
   158bc:	0a00001c 	beq	15934 <__gettextparse+0x838>
   158c0:	e3a03008 	mov	r3, #8
   158c4:	e58d3014 	str	r3, [sp, #20]
   158c8:	e28330fb 	add	r3, r3, #251	; 0xfb
   158cc:	e58d3000 	str	r3, [sp]
   158d0:	eaffffc1 	b	157dc <__gettextparse+0x6e0>
   158d4:	e5dee001 	ldrb	lr, [lr, #1]
   158d8:	e2413030 	sub	r3, r1, #48	; 0x30
   158dc:	e58d3014 	str	r3, [sp, #20]
   158e0:	e24e1030 	sub	r1, lr, #48	; 0x30
   158e4:	e3510009 	cmp	r1, #9
   158e8:	8a000007 	bhi	1590c <__gettextparse+0x810>
   158ec:	e0833103 	add	r3, r3, r3, lsl #2
   158f0:	e08e3083 	add	r3, lr, r3, lsl #1
   158f4:	e5f5e001 	ldrb	lr, [r5, #1]!
   158f8:	e2433030 	sub	r3, r3, #48	; 0x30
   158fc:	e24e1030 	sub	r1, lr, #48	; 0x30
   15900:	e3510009 	cmp	r1, #9
   15904:	9afffff8 	bls	158ec <__gettextparse+0x7f0>
   15908:	e58d3014 	str	r3, [sp, #20]
   1590c:	e59f3058 	ldr	r3, [pc, #88]	; 1596c <__gettextparse+0x870>
   15910:	e58d3000 	str	r3, [sp]
   15914:	eaffffb0 	b	157dc <__gettextparse+0x6e0>
   15918:	e3a04002 	mov	r4, #2
   1591c:	eafffe91 	b	15368 <__gettextparse+0x26c>
   15920:	e3a04000 	mov	r4, #0
   15924:	eafffe8f 	b	15368 <__gettextparse+0x26c>
   15928:	e1a07008 	mov	r7, r8
   1592c:	e3a04001 	mov	r4, #1
   15930:	eafffe8c 	b	15368 <__gettextparse+0x26c>
   15934:	e3a0300a 	mov	r3, #10
   15938:	e58d3014 	str	r3, [sp, #20]
   1593c:	e28330f9 	add	r3, r3, #249	; 0xf9
   15940:	e28e5002 	add	r5, lr, #2
   15944:	e58d3000 	str	r3, [sp]
   15948:	eaffffa3 	b	157dc <__gettextparse+0x6e0>
   1594c:	e3a0300b 	mov	r3, #11
   15950:	e58d3014 	str	r3, [sp, #20]
   15954:	e28330f8 	add	r3, r3, #248	; 0xf8
   15958:	e28e5002 	add	r5, lr, #2
   1595c:	e58d3000 	str	r3, [sp]
   15960:	eaffff9d 	b	157dc <__gettextparse+0x6e0>
   15964:	00071b58 	.word	0x00071b58
   15968:	0000270f 	.word	0x0000270f
   1596c:	00000106 	.word	0x00000106
   15970:	00000103 	.word	0x00000103
   15974:	00000105 	.word	0x00000105

00015978 <__gettext_extract_plural>:
   15978:	e92d40f0 	push	{r4, r5, r6, r7, lr}
   1597c:	e2504000 	subs	r4, r0, #0
   15980:	e24dd014 	sub	sp, sp, #20
   15984:	e1a06001 	mov	r6, r1
   15988:	e1a05002 	mov	r5, r2
   1598c:	0a00001c 	beq	15a04 <__gettext_extract_plural+0x8c>
   15990:	e59f10d8 	ldr	r1, [pc, #216]	; 15a70 <__gettext_extract_plural+0xf8>
   15994:	eb003dc4 	bl	250ac <strstr>
   15998:	e59f10d4 	ldr	r1, [pc, #212]	; 15a74 <__gettext_extract_plural+0xfc>
   1599c:	e1a07000 	mov	r7, r0
   159a0:	e1a00004 	mov	r0, r4
   159a4:	eb003dc0 	bl	250ac <strstr>
   159a8:	e3570000 	cmp	r7, #0
   159ac:	13500000 	cmpne	r0, #0
   159b0:	0a000013 	beq	15a04 <__gettext_extract_plural+0x8c>
   159b4:	e5d03009 	ldrb	r3, [r0, #9]
   159b8:	e2804009 	add	r4, r0, #9
   159bc:	e3530000 	cmp	r3, #0
   159c0:	0a00000f 	beq	15a04 <__gettext_extract_plural+0x8c>
   159c4:	e59f20ac 	ldr	r2, [pc, #172]	; 15a78 <__gettext_extract_plural+0x100>
   159c8:	ebffee10 	bl	11210 <__aeabi_read_tp>
   159cc:	e1a01083 	lsl	r1, r3, #1
   159d0:	e79f2002 	ldr	r2, [pc, r2]
   159d4:	e7902002 	ldr	r2, [r0, r2]
   159d8:	e19210b1 	ldrh	r1, [r2, r1]
   159dc:	e3110a02 	tst	r1, #8192	; 0x2000
   159e0:	1a000003 	bne	159f4 <__gettext_extract_plural+0x7c>
   159e4:	ea00000c 	b	15a1c <__gettext_extract_plural+0xa4>
   159e8:	e192c0bc 	ldrh	ip, [r2, ip]
   159ec:	e31c0a02 	tst	ip, #8192	; 0x2000
   159f0:	0a000009 	beq	15a1c <__gettext_extract_plural+0xa4>
   159f4:	e5f43001 	ldrb	r3, [r4, #1]!
   159f8:	e3530000 	cmp	r3, #0
   159fc:	e1a0c083 	lsl	ip, r3, #1
   15a00:	1afffff8 	bne	159e8 <__gettext_extract_plural+0x70>
   15a04:	e59f2070 	ldr	r2, [pc, #112]	; 15a7c <__gettext_extract_plural+0x104>
   15a08:	e3a03002 	mov	r3, #2
   15a0c:	e5862000 	str	r2, [r6]
   15a10:	e5853000 	str	r3, [r5]
   15a14:	e28dd014 	add	sp, sp, #20
   15a18:	e8bd80f0 	pop	{r4, r5, r6, r7, pc}
   15a1c:	e2433030 	sub	r3, r3, #48	; 0x30
   15a20:	e3530009 	cmp	r3, #9
   15a24:	8afffff6 	bhi	15a04 <__gettext_extract_plural+0x8c>
   15a28:	e1a00004 	mov	r0, r4
   15a2c:	e28d1004 	add	r1, sp, #4
   15a30:	e3a0200a 	mov	r2, #10
   15a34:	eb000356 	bl	16794 <strtoul>
   15a38:	e59d3004 	ldr	r3, [sp, #4]
   15a3c:	e1540003 	cmp	r4, r3
   15a40:	0affffef 	beq	15a04 <__gettext_extract_plural+0x8c>
   15a44:	e28d3010 	add	r3, sp, #16
   15a48:	e2877007 	add	r7, r7, #7
   15a4c:	e5850000 	str	r0, [r5]
   15a50:	e5237008 	str	r7, [r3, #-8]!
   15a54:	e1a00003 	mov	r0, r3
   15a58:	ebfffda7 	bl	150fc <__gettextparse>
   15a5c:	e3500000 	cmp	r0, #0
   15a60:	1affffe7 	bne	15a04 <__gettext_extract_plural+0x8c>
   15a64:	e59d300c 	ldr	r3, [sp, #12]
   15a68:	e5863000 	str	r3, [r6]
   15a6c:	eaffffe8 	b	15a14 <__gettext_extract_plural+0x9c>
   15a70:	00071d6c 	.word	0x00071d6c
   15a74:	00071d74 	.word	0x00071d74
   15a78:	00082b8c 	.word	0x00082b8c
   15a7c:	00071d30 	.word	0x00071d30

00015a80 <__hash_string>:
   15a80:	e2402001 	sub	r2, r0, #1
   15a84:	e3a00000 	mov	r0, #0
   15a88:	ea000003 	b	15a9c <__hash_string+0x1c>
   15a8c:	e0830200 	add	r0, r3, r0, lsl #4
   15a90:	e210320f 	ands	r3, r0, #-268435456	; 0xf0000000
   15a94:	e0231000 	eor	r1, r3, r0
   15a98:	10210c23 	eorne	r0, r1, r3, lsr #24
   15a9c:	e5f23001 	ldrb	r3, [r2, #1]!
   15aa0:	e3530000 	cmp	r3, #0
   15aa4:	1afffff8 	bne	15a8c <__hash_string+0xc>
   15aa8:	e12fff1e 	bx	lr
   15aac:	00000000 	andeq	r0, r0, r0

00015ab0 <_setjmp>:
   15ab0:	e3a01000 	mov	r1, #0
   15ab4:	ea008325 	b	36750 <__sigsetjmp>
   15ab8:	e1a00000 	nop			; (mov r0, r0)
   15abc:	e1a00000 	nop			; (mov r0, r0)

00015ac0 <abort>:
   15ac0:	e59f4280 	ldr	r4, [pc, #640]	; 15d48 <abort+0x288>
   15ac4:	e92d4080 	push	{r7, lr}
   15ac8:	ebffedd0 	bl	11210 <__aeabi_read_tp>
   15acc:	e5943008 	ldr	r3, [r4, #8]
   15ad0:	e2406d13 	sub	r6, r0, #1216	; 0x4c0
   15ad4:	e1530006 	cmp	r3, r6
   15ad8:	e24dde11 	sub	sp, sp, #272	; 0x110
   15adc:	e1a07000 	mov	r7, r0
   15ae0:	0a00000e 	beq	15b20 <abort+0x60>
   15ae4:	e3a02001 	mov	r2, #1
   15ae8:	e3a03000 	mov	r3, #0
   15aec:	e58d3084 	str	r3, [sp, #132]	; 0x84
   15af0:	e1943f9f 	ldrex	r3, [r4]
   15af4:	e3530000 	cmp	r3, #0
   15af8:	1a000003 	bne	15b0c <abort+0x4c>
   15afc:	e1841f92 	strex	r1, r2, [r4]
   15b00:	e3510000 	cmp	r1, #0
   15b04:	1afffff9 	bne	15af0 <abort+0x30>
   15b08:	ee070fba 	mcr	15, 0, r0, cr7, cr10, {5}
   15b0c:	158d3084 	strne	r3, [sp, #132]	; 0x84
   15b10:	e59d3084 	ldr	r3, [sp, #132]	; 0x84
   15b14:	e3530000 	cmp	r3, #0
   15b18:	1a000087 	bne	15d3c <abort+0x27c>
   15b1c:	e5846008 	str	r6, [r4, #8]
   15b20:	e5943004 	ldr	r3, [r4, #4]
   15b24:	e594500c 	ldr	r5, [r4, #12]
   15b28:	e2833001 	add	r3, r3, #1
   15b2c:	e3550000 	cmp	r5, #0
   15b30:	e5843004 	str	r3, [r4, #4]
   15b34:	e59f820c 	ldr	r8, [pc, #524]	; 15d48 <abort+0x288>
   15b38:	0a00006a 	beq	15ce8 <abort+0x228>
   15b3c:	e3550001 	cmp	r5, #1
   15b40:	0a000077 	beq	15d24 <abort+0x264>
   15b44:	e3550002 	cmp	r5, #2
   15b48:	0a00002e 	beq	15c08 <abort+0x148>
   15b4c:	e3550003 	cmp	r5, #3
   15b50:	0a000017 	beq	15bb4 <abort+0xf4>
   15b54:	e3550004 	cmp	r5, #4
   15b58:	0a000010 	beq	15ba0 <abort+0xe0>
   15b5c:	e3550005 	cmp	r5, #5
   15b60:	0a000008 	beq	15b88 <abort+0xc8>
   15b64:	e3550006 	cmp	r5, #6
   15b68:	0a000002 	beq	15b78 <abort+0xb8>
   15b6c:	e3550007 	cmp	r5, #7
   15b70:	0a000000 	beq	15b78 <abort+0xb8>
   15b74:	eafffffe 	b	15b74 <abort+0xb4>
   15b78:	e3a03008 	mov	r3, #8
   15b7c:	e3a0007f 	mov	r0, #127	; 0x7f
   15b80:	e584300c 	str	r3, [r4, #12]
   15b84:	eb0042e8 	bl	2672c <_exit>
   15b88:	e3a03006 	mov	r3, #6
   15b8c:	e1a00003 	mov	r0, r3
   15b90:	e584300c 	str	r3, [r4, #12]
   15b94:	eb008313 	bl	367e8 <raise>
   15b98:	e594500c 	ldr	r5, [r4, #12]
   15b9c:	eafffff0 	b	15b64 <abort+0xa4>
   15ba0:	e3a03005 	mov	r3, #5
   15ba4:	e584300c 	str	r3, [r4, #12]
   15ba8:	eb000d20 	bl	19030 <__fcloseall>
   15bac:	e594500c 	ldr	r5, [r4, #12]
   15bb0:	eaffffe9 	b	15b5c <abort+0x9c>
   15bb4:	e28d5084 	add	r5, sp, #132	; 0x84
   15bb8:	e3a03004 	mov	r3, #4
   15bbc:	e1a00005 	mov	r0, r5
   15bc0:	e3a01000 	mov	r1, #0
   15bc4:	e3a0208c 	mov	r2, #140	; 0x8c
   15bc8:	e584300c 	str	r3, [r4, #12]
   15bcc:	eb00406f 	bl	25d90 <memset>
   15bd0:	e28d3f42 	add	r3, sp, #264	; 0x108
   15bd4:	e28d1088 	add	r1, sp, #136	; 0x88
   15bd8:	e3e02000 	mvn	r2, #0
   15bdc:	e5232004 	str	r2, [r3, #-4]!
   15be0:	e1530001 	cmp	r3, r1
   15be4:	1afffffc 	bne	15bdc <abort+0x11c>
   15be8:	e3a03000 	mov	r3, #0
   15bec:	e1a01005 	mov	r1, r5
   15bf0:	e1a02003 	mov	r2, r3
   15bf4:	e3a00006 	mov	r0, #6
   15bf8:	e58d3108 	str	r3, [sp, #264]	; 0x108
   15bfc:	eb008371 	bl	369c8 <__sigaction>
   15c00:	e594500c 	ldr	r5, [r4, #12]
   15c04:	eaffffd2 	b	15b54 <abort+0x94>
   15c08:	e5943004 	ldr	r3, [r4, #4]
   15c0c:	e3a02000 	mov	r2, #0
   15c10:	e2433001 	sub	r3, r3, #1
   15c14:	e1530002 	cmp	r3, r2
   15c18:	e5843004 	str	r3, [r4, #4]
   15c1c:	e584200c 	str	r2, [r4, #12]
   15c20:	e59f0120 	ldr	r0, [pc, #288]	; 15d48 <abort+0x288>
   15c24:	0a000021 	beq	15cb0 <abort+0x1f0>
   15c28:	e3a00006 	mov	r0, #6
   15c2c:	eb0082ed 	bl	367e8 <raise>
   15c30:	e5942008 	ldr	r2, [r4, #8]
   15c34:	e59f310c 	ldr	r3, [pc, #268]	; 15d48 <abort+0x288>
   15c38:	e1560002 	cmp	r6, r2
   15c3c:	0a000010 	beq	15c84 <abort+0x1c4>
   15c40:	e3a01001 	mov	r1, #1
   15c44:	e3a02000 	mov	r2, #0
   15c48:	e58d2084 	str	r2, [sp, #132]	; 0x84
   15c4c:	e1932f9f 	ldrex	r2, [r3]
   15c50:	e3520000 	cmp	r2, #0
   15c54:	1a000003 	bne	15c68 <abort+0x1a8>
   15c58:	e1830f91 	strex	r0, r1, [r3]
   15c5c:	e3500000 	cmp	r0, #0
   15c60:	1afffff9 	bne	15c4c <abort+0x18c>
   15c64:	ee070fba 	mcr	15, 0, r0, cr7, cr10, {5}
   15c68:	158d2084 	strne	r2, [sp, #132]	; 0x84
   15c6c:	e59d3084 	ldr	r3, [sp, #132]	; 0x84
   15c70:	e3530000 	cmp	r3, #0
   15c74:	0a000001 	beq	15c80 <abort+0x1c0>
   15c78:	e59f00c8 	ldr	r0, [pc, #200]	; 15d48 <abort+0x288>
   15c7c:	eb004d7f 	bl	29280 <__lll_lock_wait_private>
   15c80:	e5846008 	str	r6, [r4, #8]
   15c84:	e5943004 	ldr	r3, [r4, #4]
   15c88:	e28d5084 	add	r5, sp, #132	; 0x84
   15c8c:	e2833001 	add	r3, r3, #1
   15c90:	e3a0c004 	mov	ip, #4
   15c94:	e1a00005 	mov	r0, r5
   15c98:	e3a01000 	mov	r1, #0
   15c9c:	e3a0208c 	mov	r2, #140	; 0x8c
   15ca0:	e5843004 	str	r3, [r4, #4]
   15ca4:	e584c00c 	str	ip, [r4, #12]
   15ca8:	eb004038 	bl	25d90 <memset>
   15cac:	eaffffc7 	b	15bd0 <abort+0x110>
   15cb0:	e5803008 	str	r3, [r0, #8]
   15cb4:	ee070fba 	mcr	15, 0, r0, cr7, cr10, {5}
   15cb8:	e1901f9f 	ldrex	r1, [r0]
   15cbc:	e1802f93 	strex	r2, r3, [r0]
   15cc0:	e3520000 	cmp	r2, #0
   15cc4:	1afffffb 	bne	15cb8 <abort+0x1f8>
   15cc8:	e3510001 	cmp	r1, #1
   15ccc:	daffffd5 	ble	15c28 <abort+0x168>
   15cd0:	e51714b8 	ldr	r1, [r7, #-1208]	; 0xfffffb48
   15cd4:	e3a02001 	mov	r2, #1
   15cd8:	e3811001 	orr	r1, r1, #1
   15cdc:	e3a070f0 	mov	r7, #240	; 0xf0
   15ce0:	ef000000 	svc	0x00000000
   15ce4:	eaffffcf 	b	15c28 <abort+0x168>
   15ce8:	e1a01005 	mov	r1, r5
   15cec:	e3a09001 	mov	r9, #1
   15cf0:	e3a02080 	mov	r2, #128	; 0x80
   15cf4:	e28d0004 	add	r0, sp, #4
   15cf8:	e588900c 	str	r9, [r8, #12]
   15cfc:	eb004023 	bl	25d90 <memset>
   15d00:	e1a02005 	mov	r2, r5
   15d04:	e3a03020 	mov	r3, #32
   15d08:	e1a00009 	mov	r0, r9
   15d0c:	e28d1004 	add	r1, sp, #4
   15d10:	e58d3004 	str	r3, [sp, #4]
   15d14:	eb008338 	bl	369fc <__sigprocmask>
   15d18:	e598500c 	ldr	r5, [r8, #12]
   15d1c:	e3550001 	cmp	r5, #1
   15d20:	1affff87 	bne	15b44 <abort+0x84>
   15d24:	e3a03002 	mov	r3, #2
   15d28:	e3a00000 	mov	r0, #0
   15d2c:	e584300c 	str	r3, [r4, #12]
   15d30:	eb001ab5 	bl	1c80c <_IO_flush_all_lockp>
   15d34:	e594500c 	ldr	r5, [r4, #12]
   15d38:	eaffff81 	b	15b44 <abort+0x84>
   15d3c:	e59f0004 	ldr	r0, [pc, #4]	; 15d48 <abort+0x288>
   15d40:	eb004d4e 	bl	29280 <__lll_lock_wait_private>
   15d44:	eaffff74 	b	15b1c <abort+0x5c>
   15d48:	000996b4 	.word	0x000996b4

00015d4c <msort_with_tmp.part.0>:
   15d4c:	e1a03002 	mov	r3, r2
   15d50:	e92d4ff0 	push	{r4, r5, r6, r7, r8, r9, sl, fp, lr}
   15d54:	e1a050a3 	lsr	r5, r3, #1
   15d58:	e5904000 	ldr	r4, [r0]
   15d5c:	e24dd014 	sub	sp, sp, #20
   15d60:	e3550001 	cmp	r5, #1
   15d64:	e58d0004 	str	r0, [sp, #4]
   15d68:	e58d200c 	str	r2, [sp, #12]
   15d6c:	e58d1008 	str	r1, [sp, #8]
   15d70:	e065b003 	rsb	fp, r5, r3
   15d74:	e0241594 	mla	r4, r4, r5, r1
   15d78:	9a000001 	bls	15d84 <msort_with_tmp.part.0+0x38>
   15d7c:	e1a02005 	mov	r2, r5
   15d80:	ebfffff1 	bl	15d4c <msort_with_tmp.part.0>
